	.cpu cortex-a15
	.eabi_attribute 20, 1
	.eabi_attribute 21, 1
	.eabi_attribute 23, 3
	.eabi_attribute 24, 1
	.eabi_attribute 25, 1
	.eabi_attribute 26, 2
	.eabi_attribute 30, 2
	.eabi_attribute 34, 1
	.eabi_attribute 18, 4
	.file	"android.c"
	.text
	.syntax divided


	.arm
	.syntax unified
	.align	2
	.arch armv7ve
	.syntax unified
	.arm
	.fpu softvfp
	.type	composite_setup_complete, %function
composite_setup_complete:
	.fnstart
	@ args = 0, pretend = 0, frame = 0
	@ frame_needed = 0, uses_anonymous_args = 0
	@ link register save eliminated.
	bx	lr
	.fnend
	.size	composite_setup_complete, .-composite_setup_complete
	.align	2
	.syntax unified
	.arm
	.fpu softvfp
	.type	f_midi_disable, %function
f_midi_disable:
	.fnstart
	@ args = 0, pretend = 0, frame = 0
	@ frame_needed = 0, uses_anonymous_args = 0
	.save {r4, lr}
	str	r4, [sp, #-8]!
	mov	r4, r0
	str	lr, [sp, #4]
	ldr	r0, [r0, #80]
	ldr	r3, [r0, #8]
	ldr	r3, [r3, #4]
	blx	r3
	ldr	r0, [r4, #84]
	ldr	r4, [sp]
	ldr	lr, [sp, #4]
	add	sp, sp, #8
	ldr	r3, [r0, #8]
	ldr	r3, [r3, #4]
	bx	r3
	.fnend
	.size	f_midi_disable, .-f_midi_disable
	.align	2
	.syntax unified
	.arm
	.fpu softvfp
	.type	f_midi_snd_free, %function
f_midi_snd_free:
	.fnstart
	@ args = 0, pretend = 0, frame = 0
	@ frame_needed = 0, uses_anonymous_args = 0
	@ link register save eliminated.
	mov	r0, #0
	bx	lr
	.fnend
	.size	f_midi_snd_free, .-f_midi_snd_free
	.align	2
	.syntax unified
	.arm
	.fpu softvfp
	.type	f_midi_in_open, %function
f_midi_in_open:
	.fnstart
	@ args = 0, pretend = 0, frame = 0
	@ frame_needed = 0, uses_anonymous_args = 0
	@ link register save eliminated.
	ldr	r3, [r0, #12]
	ldr	r2, [r0, #28]
	ldr	r2, [r2, #200]
	add	r3, r2, r3, lsl #2
	ldr	r1, [r3, #224]
	cmp	r1, #0
	beq	.L8
	str	r0, [r3, #96]
	ldr	r3, [r0, #12]
	mov	r1, #0
	mov	r0, r1
	add	r3, r3, #56
	ldr	r3, [r2, r3, lsl #2]
	strb	r1, [r3, #9]
	bx	lr
.L8:
	mvn	r0, #21
	bx	lr
	.fnend
	.size	f_midi_in_open, .-f_midi_in_open
	.align	2
	.syntax unified
	.arm
	.fpu softvfp
	.type	f_midi_out_open, %function
f_midi_out_open:
	.fnstart
	@ args = 0, pretend = 0, frame = 0
	@ frame_needed = 0, uses_anonymous_args = 0
	@ link register save eliminated.
	ldr	r2, [r0, #12]
	mov	r3, r0
	ldr	r1, [r0, #28]
	cmp	r2, #15
	ldr	r1, [r1, #200]
	addle	r2, r2, #40
	movle	r0, #0
	mvngt	r0, #21
	strle	r3, [r1, r2, lsl #2]
	bx	lr
	.fnend
	.size	f_midi_out_open, .-f_midi_out_open
	.align	2
	.syntax unified
	.arm
	.fpu softvfp
	.type	diag_write_complete, %function
diag_write_complete:
	.fnstart
	@ args = 0, pretend = 0, frame = 0
	@ frame_needed = 0, uses_anonymous_args = 0
	strd	r4, [sp, #-24]!
	.save {r4, r5, r6, r7, r8, lr}
	mov	r4, r1
	strd	r6, [sp, #8]
	str	r8, [sp, #16]
	str	lr, [sp, #20]
	ldr	r5, [r0]
	ldr	r6, [r1, #32]
	ldr	r3, [r5, #128]
	sub	r2, r3, #1
	str	r2, [r5, #128]
	ldr	r2, [r1, #44]
	cmp	r2, #0
	bne	.L13
	ldrh	r2, [r0, #20]
	ldr	r0, [r1, #4]
	cmp	r0, r2
	bcc	.L13
	udiv	ip, r0, r2
	mls	r0, r2, ip, r0
	cmp	r0, #0
	beq	.L26
.L13:
	add	r7, r5, #100
	mov	r0, r7
	bl	_raw_spin_lock_irqsave
	ldr	ip, [r5, #96]
	add	r3, r4, #36
	add	r2, r5, #92
	mov	r1, r0
	str	r3, [r5, #96]
	str	r2, [r4, #36]
	str	ip, [r4, #40]
	str	r3, [ip]
	ldr	r3, [r4, #4]
	cmp	r3, #0
	bne	.L27
.L14:
	mov	r0, r7
	bl	_raw_spin_unlock_irqrestore
	ldr	r3, [r5, #116]
	cmp	r3, #0
	beq	.L12
	ldr	lr, [r3, #12]
	cmp	lr, #0
	beq	.L12
	mov	r2, r6
	mov	r1, #2
	ldrd	r4, [sp]
	ldrd	r6, [sp, #8]
	ldr	r0, [r3, #16]
	mov	r3, lr
	ldr	r8, [sp, #16]
	ldr	lr, [sp, #20]
	add	sp, sp, #24
	bx	r3	@ indirect register sibling call
.L27:
	ldr	r3, [r4, #48]
	str	r3, [r6, #8]
	ldr	r3, [r4, #44]
	str	r3, [r6, #12]
	b	.L14
.L12:
	ldrd	r4, [sp]
	ldrd	r6, [sp, #8]
	ldr	r8, [sp, #16]
	add	sp, sp, #20
	ldr	pc, [sp], #4
.L26:
	str	r3, [r5, #128]
	ldr	r3, [r1, #48]
	mov	r2, #32
	str	r0, [r1, #4]
	str	r3, [r6, #8]
	ldr	r3, [r1, #44]
	str	r3, [r6, #12]
	ldr	r0, [r5, #80]
	ldrd	r4, [sp]
	ldrd	r6, [sp, #8]
	ldr	r8, [sp, #16]
	ldr	r3, [r0, #8]
	ldr	lr, [sp, #20]
	add	sp, sp, #24
	ldr	r3, [r3, #16]
	bx	r3
	.fnend
	.size	diag_write_complete, .-diag_write_complete
	.align	2
	.syntax unified
	.arm
	.fpu softvfp
	.type	diag_read_complete, %function
diag_read_complete:
	.fnstart
	@ args = 0, pretend = 0, frame = 0
	@ frame_needed = 0, uses_anonymous_args = 0
	strd	r4, [sp, #-24]!
	.save {r4, r5, r6, r7, r8, lr}
	mov	r4, r1
	strd	r6, [sp, #8]
	str	r8, [sp, #16]
	str	lr, [sp, #20]
	ldr	r6, [r1, #32]
	ldr	r3, [r1, #48]
	ldr	r5, [r0]
	str	r3, [r6, #8]
	ldr	r3, [r1, #44]
	add	r7, r5, #100
	mov	r0, r7
	str	r3, [r6, #12]
	bl	_raw_spin_lock_irqsave
	ldr	r3, [r5, #88]
	add	r2, r4, #36
	add	ip, r5, #84
	mov	r1, r0
	mov	r0, r7
	str	r2, [r5, #88]
	str	ip, [r4, #36]
	str	r3, [r4, #40]
	str	r2, [r3]
	bl	_raw_spin_unlock_irqrestore
	ldr	r0, [r5, #116]
	ldr	r3, [r5, #124]
	cmp	r0, #0
	add	r3, r3, #1
	str	r3, [r5, #124]
	beq	.L28
	ldr	r3, [r0, #12]
	cmp	r3, #0
	beq	.L28
	mov	r2, r6
	mov	r1, #3
	ldrd	r4, [sp]
	ldrd	r6, [sp, #8]
	ldr	r8, [sp, #16]
	ldr	r0, [r0, #16]
	ldr	lr, [sp, #20]
	add	sp, sp, #24
	bx	r3	@ indirect register sibling call
.L28:
	ldrd	r4, [sp]
	ldrd	r6, [sp, #8]
	ldr	r8, [sp, #16]
	add	sp, sp, #20
	ldr	pc, [sp], #4
	.fnend
	.size	diag_read_complete, .-diag_read_complete
	.align	2
	.syntax unified
	.arm
	.fpu softvfp
	.type	free_reqs, %function
free_reqs:
	.fnstart
	@ args = 0, pretend = 0, frame = 0
	@ frame_needed = 0, uses_anonymous_args = 0
	strd	r4, [sp, #-24]!
	.save {r4, r5, r6, r7, r8, lr}
	mov	r5, r0
	strd	r6, [sp, #8]
	mov	r6, r0
	str	r8, [sp, #16]
	str	lr, [sp, #20]
	ldr	r3, [r6, #92]!
	cmp	r3, r6
	ldr	r4, [r3]
	movne	r8, #256
	movne	r7, #512
	beq	.L41
.L38:
	ldr	r2, [r3, #4]
	sub	r1, r3, #36
	str	r2, [r4, #4]
	str	r4, [r2]
	str	r8, [r3]
	str	r7, [r3, #4]
	ldr	r0, [r5, #80]
	ldr	r3, [r0, #8]
	ldr	r3, [r3, #12]
	blx	r3
	cmp	r6, r4
	mov	r3, r4
	ldr	r4, [r4]
	bne	.L38
.L41:
	mov	r6, r5
	ldr	r3, [r6, #84]!
	cmp	r3, r6
	ldr	r4, [r3]
	movne	r8, #256
	movne	r7, #512
	beq	.L37
.L39:
	ldr	r2, [r3, #4]
	sub	r1, r3, #36
	str	r2, [r4, #4]
	str	r4, [r2]
	str	r8, [r3]
	str	r7, [r3, #4]
	ldr	r0, [r5, #76]
	ldr	r3, [r0, #8]
	ldr	r3, [r3, #12]
	blx	r3
	cmp	r6, r4
	mov	r3, r4
	ldr	r4, [r4]
	bne	.L39
.L37:
	ldrd	r4, [sp]
	ldrd	r6, [sp, #8]
	ldr	r8, [sp, #16]
	add	sp, sp, #20
	ldr	pc, [sp], #4
	.fnend
	.size	free_reqs, .-free_reqs
	.align	2
	.syntax unified
	.arm
	.fpu softvfp
	.type	diag_function_disable, %function
diag_function_disable:
	.fnstart
	@ args = 0, pretend = 0, frame = 0
	@ frame_needed = 0, uses_anonymous_args = 0
	strd	r4, [sp, #-16]!
	.save {r4, r5, r6, lr}
	add	r5, r0, #100
	mov	r4, r0
	mov	r0, r5
	str	r6, [sp, #8]
	mov	r6, #0
	str	lr, [sp, #12]
	bl	_raw_spin_lock_irqsave
	mov	r1, r0
	mov	r0, r5
	str	r6, [r4, #104]
	bl	_raw_spin_unlock_irqrestore
	ldr	r3, [r4, #116]
	cmp	r3, r6
	beq	.L48
	ldr	r5, [r3, #12]
	cmp	r5, r6
	beq	.L48
	mov	r2, r6
	mov	r1, #1
	ldr	r0, [r3, #16]
	blx	r5
.L48:
	ldr	r0, [r4, #80]
	mov	r5, #0
	ldr	r3, [r0, #8]
	ldr	r3, [r3, #4]
	blx	r3
	ldr	r3, [r4, #80]
	str	r5, [r3]
	ldr	r0, [r4, #76]
	ldr	r3, [r0, #8]
	ldr	r3, [r3, #4]
	blx	r3
	ldr	r3, [r4, #76]
	str	r5, [r3]
	ldr	r3, [r4, #116]
	cmp	r3, r5
	strne	r5, [r3, #20]
	ldrd	r4, [sp]
	ldr	r6, [sp, #8]
	add	sp, sp, #12
	ldr	pc, [sp], #4
	.fnend
	.size	diag_function_disable, .-diag_function_disable
	.align	2
	.syntax unified
	.arm
	.fpu softvfp
	.type	qdss_ctrl_write_complete, %function
qdss_ctrl_write_complete:
	.fnstart
	@ args = 0, pretend = 0, frame = 0
	@ frame_needed = 0, uses_anonymous_args = 0
	strd	r4, [sp, #-24]!
	.save {r4, r5, r6, r7, r8, lr}
	mov	r4, r1
	strd	r6, [sp, #8]
	str	r8, [sp, #16]
	str	lr, [sp, #20]
	ldr	r5, [r0]
	ldr	r3, [r1, #44]
	ldr	r6, [r1, #32]
	cmp	r3, #0
	bne	.L61
	ldrh	r3, [r0, #20]
	ldr	r2, [r1, #4]
	cmp	r2, r3
	bcc	.L61
	udiv	r0, r2, r3
	mls	r3, r3, r0, r2
	cmp	r3, #0
	beq	.L68
.L61:
	add	r7, r5, #180
	mov	r0, r7
	bl	_raw_spin_lock_irqsave
	ldr	ip, [r5, #144]
	add	r3, r4, #36
	add	r2, r5, #140
	mov	r1, r0
	str	r3, [r5, #144]
	str	r2, [r4, #36]
	str	ip, [r4, #40]
	str	r3, [ip]
	ldr	r3, [r4, #4]
	cmp	r3, #0
	bne	.L69
.L62:
	mov	r0, r7
	bl	_raw_spin_unlock_irqrestore
	ldr	lr, [r5, #116]
	cmp	lr, #0
	beq	.L60
	mov	r2, r6
	mov	ip, lr
	ldrd	r6, [sp, #8]
	mov	r3, #0
	mov	r1, #4
	ldr	r8, [sp, #16]
	ldr	lr, [sp, #20]
	ldr	r0, [r5, #120]
	ldrd	r4, [sp]
	add	sp, sp, #24
	bx	ip	@ indirect register sibling call
.L69:
	ldr	r3, [r4, #48]
	str	r3, [r6, #8]
	ldr	r3, [r4, #44]
	str	r3, [r6, #12]
	b	.L62
.L60:
	ldrd	r4, [sp]
	ldrd	r6, [sp, #8]
	ldr	r8, [sp, #16]
	add	sp, sp, #20
	ldr	pc, [sp], #4
.L68:
	ldr	r0, [r1, #48]
	str	r3, [r1, #4]
	mov	r2, #32
	str	r0, [r6, #8]
	ldr	r3, [r1, #44]
	str	r3, [r6, #12]
	ldr	r0, [r5, #96]
	ldrd	r4, [sp]
	ldrd	r6, [sp, #8]
	ldr	r8, [sp, #16]
	ldr	r3, [r0, #8]
	ldr	lr, [sp, #20]
	add	sp, sp, #24
	ldr	r3, [r3, #16]
	bx	r3
	.fnend
	.size	qdss_ctrl_write_complete, .-qdss_ctrl_write_complete
	.align	2
	.syntax unified
	.arm
	.fpu softvfp
	.type	qdss_ctrl_read_complete, %function
qdss_ctrl_read_complete:
	.fnstart
	@ args = 0, pretend = 0, frame = 0
	@ frame_needed = 0, uses_anonymous_args = 0
	strd	r4, [sp, #-24]!
	.save {r4, r5, r6, r7, r8, lr}
	mov	r4, r1
	strd	r6, [sp, #8]
	str	r8, [sp, #16]
	str	lr, [sp, #20]
	ldr	r6, [r1, #32]
	ldr	r3, [r1, #48]
	ldr	r5, [r0]
	str	r3, [r6, #8]
	ldr	r3, [r1, #44]
	add	r7, r5, #180
	mov	r0, r7
	str	r3, [r6, #12]
	bl	_raw_spin_lock_irqsave
	ldr	r3, [r5, #136]
	add	r2, r4, #36
	add	ip, r5, #132
	mov	r1, r0
	mov	r0, r7
	str	r2, [r5, #136]
	str	ip, [r4, #36]
	str	r3, [r4, #40]
	str	r2, [r3]
	bl	_raw_spin_unlock_irqrestore
	ldr	lr, [r5, #116]
	cmp	lr, #0
	beq	.L70
	mov	r2, r6
	mov	ip, lr
	ldrd	r6, [sp, #8]
	mov	r3, #0
	mov	r1, #2
	ldr	r8, [sp, #16]
	ldr	lr, [sp, #20]
	ldr	r0, [r5, #120]
	ldrd	r4, [sp]
	add	sp, sp, #24
	bx	ip	@ indirect register sibling call
.L70:
	ldrd	r4, [sp]
	ldrd	r6, [sp, #8]
	ldr	r8, [sp, #16]
	add	sp, sp, #20
	ldr	pc, [sp], #4
	.fnend
	.size	qdss_ctrl_read_complete, .-qdss_ctrl_read_complete
	.align	2
	.syntax unified
	.arm
	.fpu softvfp
	.type	rmnet_txcommand_complete, %function
rmnet_txcommand_complete:
	.fnstart
	@ args = 0, pretend = 0, frame = 0
	@ frame_needed = 0, uses_anonymous_args = 0
	strd	r4, [sp, #-16]!
	.save {r4, r5, r6, lr}
	str	r6, [sp, #8]
	str	lr, [sp, #12]
	ldr	r4, [r1, #32]
	add	r5, r4, #156
	mov	r0, r5
	bl	_raw_spin_lock
	ldr	r3, [r4, #432]
	mov	r0, r5
	add	r3, r3, #1
	str	r3, [r4, #432]
	ldrd	r4, [sp]
	ldr	r6, [sp, #8]
	ldr	lr, [sp, #12]
	add	sp, sp, #16
	b	_raw_spin_unlock
	.fnend
	.size	rmnet_txcommand_complete, .-rmnet_txcommand_complete
	.align	2
	.syntax unified
	.arm
	.fpu softvfp
	.type	rmnet_sdio_set_modem_cbits_w, %function
rmnet_sdio_set_modem_cbits_w:
	.fnstart
	@ args = 0, pretend = 0, frame = 0
	@ frame_needed = 0, uses_anonymous_args = 0
	@ link register save eliminated.
	ldr	r3, [r0, #-12]
	bx	lr
	.fnend
	.size	rmnet_sdio_set_modem_cbits_w, .-rmnet_sdio_set_modem_cbits_w
	.align	2
	.syntax unified
	.arm
	.fpu softvfp
	.type	rmnet_sdio_disconnect_work, %function
rmnet_sdio_disconnect_work:
	.fnstart
	@ args = 0, pretend = 0, frame = 0
	@ frame_needed = 0, uses_anonymous_args = 0
	@ link register save eliminated.
	bx	lr
	.fnend
	.size	rmnet_sdio_disconnect_work, .-rmnet_sdio_disconnect_work
	.align	2
	.syntax unified
	.arm
	.fpu softvfp
	.type	rmnet_mux_suspend, %function
rmnet_mux_suspend:
	.fnstart
	@ args = 0, pretend = 0, frame = 0
	@ frame_needed = 0, uses_anonymous_args = 0
	@ link register save eliminated.
	ldr	r3, [r0, #360]
	cmp	r3, #0
	beq	.L77
	ldr	r3, [r0, #340]
	bic	r3, r3, #2
	str	r3, [r0, #340]
.L77:
	bx	lr
	.fnend
	.size	rmnet_mux_suspend, .-rmnet_mux_suspend
	.align	2
	.syntax unified
	.arm
	.fpu softvfp
	.type	rmnet_mux_unbind, %function
rmnet_mux_unbind:
	.fnstart
	@ args = 0, pretend = 0, frame = 0
	@ frame_needed = 0, uses_anonymous_args = 0
	@ link register save eliminated.
	mov	r3, #0
	str	r3, [r1, #164]
	bx	lr
	.fnend
	.size	rmnet_mux_unbind, .-rmnet_mux_unbind
	.align	2
	.global	usb_rmnet_mux_ctrl_release
	.syntax unified
	.arm
	.fpu softvfp
	.type	usb_rmnet_mux_ctrl_release, %function
usb_rmnet_mux_ctrl_release:
	.fnstart
	@ args = 0, pretend = 0, frame = 0
	@ frame_needed = 0, uses_anonymous_args = 0
	strd	r4, [sp, #-24]!
	.save {r4, r5, r6, r7, r8, lr}
	mov	r5, #0
	mov	r4, r1
	strd	r6, [sp, #8]
	str	r8, [sp, #16]
	str	lr, [sp, #20]
	ldr	r6, [r1, #132]
	add	r7, r6, #356
	mov	r0, r7
	bl	_raw_spin_lock_irqsave
	mov	r1, r0
	mov	r0, r7
	str	r5, [r6, #344]
	str	r5, [r4, #132]
	bl	_raw_spin_unlock_irqrestore
	mov	r0, r5
	ldrd	r4, [sp]
	ldrd	r6, [sp, #8]
	ldr	r8, [sp, #16]
	add	sp, sp, #20
	ldr	pc, [sp], #4
	.fnend
	.size	usb_rmnet_mux_ctrl_release, .-usb_rmnet_mux_ctrl_release
	.align	2
	.syntax unified
	.arm
	.fpu softvfp
	.type	audio_pcm_close, %function
audio_pcm_close:
	.fnstart
	@ args = 0, pretend = 0, frame = 0
	@ frame_needed = 0, uses_anonymous_args = 0
	strd	r4, [sp, #-16]!
	.save {r4, r5, r6, lr}
	mov	r4, #0
	str	r6, [sp, #8]
	str	lr, [sp, #12]
	ldr	r5, [r0, #8]
	add	r6, r5, #100
	mov	r0, r6
	bl	_raw_spin_lock_irqsave
	mov	r1, r0
	mov	r0, r6
	str	r4, [r5, #84]
	bl	_raw_spin_unlock_irqrestore
	mov	r0, r4
	ldrd	r4, [sp]
	ldr	r6, [sp, #8]
	add	sp, sp, #12
	ldr	pc, [sp], #4
	.fnend
	.size	audio_pcm_close, .-audio_pcm_close
	.align	2
	.syntax unified
	.arm
	.fpu softvfp
	.type	audio_pcm_prepare, %function
audio_pcm_prepare:
	.fnstart
	@ args = 0, pretend = 0, frame = 0
	@ frame_needed = 0, uses_anonymous_args = 0
	mov	r1, r0
	.save {r4, lr}
	str	r4, [sp, #-8]!
	str	lr, [sp, #4]
	ldr	ip, [r1, #208]
	mov	lr, #0
	mov	r0, lr
	ldr	r4, [ip, #68]
	ldr	r2, [ip, #88]
	ldr	r3, [ip, #208]
	mul	r2, r2, r4
	str	lr, [r3, #120]
	lsr	r2, r2, #3
	str	r2, [r3, #116]
	ldr	r2, [ip, #548]
	str	r2, [r3, #104]
	ldr	ip, [r1, #208]
	ldr	lr, [ip, #76]
	ldr	r1, [ip, #88]
	str	r2, [r3, #112]
	mul	r1, r1, lr
	add	r2, r2, r1, lsr #3
	str	r2, [r3, #108]
	ldr	r4, [sp]
	add	sp, sp, #4
	ldr	pc, [sp], #4
	.fnend
	.size	audio_pcm_prepare, .-audio_pcm_prepare
	.align	2
	.syntax unified
	.arm
	.fpu softvfp
	.type	audio_pcm_pointer, %function
audio_pcm_pointer:
	.fnstart
	@ args = 0, pretend = 0, frame = 0
	@ frame_needed = 0, uses_anonymous_args = 0
	@ link register save eliminated.
	ldr	r3, [r0, #208]
	ldr	r0, [r3, #88]
	ldr	r2, [r3, #208]
	ldr	r1, [r2, #104]
	ldr	r3, [r2, #112]
	sub	r3, r3, r1
	lsl	r3, r3, #3
	udiv	r0, r3, r0
	bx	lr
	.fnend
	.size	audio_pcm_pointer, .-audio_pcm_pointer
	.align	2
	.syntax unified
	.arm
	.fpu softvfp
	.type	ffs_ep0_ioctl, %function
ffs_ep0_ioctl:
	.fnstart
	@ args = 0, pretend = 0, frame = 0
	@ frame_needed = 0, uses_anonymous_args = 0
	movw	r3, #26496
	cmp	r1, r3
	ldr	r3, [r0, #132]
	beq	.L104
	ldr	r0, [r3]
	cmp	r0, #0
	beq	.L98
	ldr	r3, [r0]
	ldr	r3, [r3, #24]
	cmp	r3, #0
	beq	.L98
	bx	r3
.L104:
	ldr	r3, [r3, #136]
	cmp	r3, #0
	beq	.L95
	mov	r0, r2
	.save {lr}
	str	lr, [sp, #-4]!
	ldr	r2, [r3, #8]
	ldr	lr, [r3, #44]
	ldrh	r1, [r2, #182]
	cmp	r1, #0
	beq	.L96
	uxtb	r0, r0
	mov	r3, lr
.L94:
	mov	ip, r3
	ldrsh	r2, [r3], #2
	cmp	r2, #0
	blt	.L93
	cmp	r2, r0
	beq	.L105
.L93:
	subs	r1, r1, #1
	bne	.L94
.L96:
	mvn	r0, #32
	ldr	pc, [sp], #4
.L105:
	sub	r0, ip, lr
	asr	r0, r0, #1
	ldr	pc, [sp], #4
.L98:
	mvn	r0, #24
	bx	lr
.L95:
	mvn	r0, #18
	bx	lr
	.fnend
	.size	ffs_ep0_ioctl, .-ffs_ep0_ioctl
	.align	2
	.syntax unified
	.arm
	.fpu softvfp
	.type	gs_write_room, %function
gs_write_room:
	.fnstart
	@ args = 0, pretend = 0, frame = 0
	@ frame_needed = 0, uses_anonymous_args = 0
	strd	r4, [sp, #-16]!
	.save {r4, r5, r6, lr}
	str	r6, [sp, #8]
	str	lr, [sp, #12]
	ldr	r4, [r0, #280]
	mov	r0, r4
	bl	_raw_spin_lock_irqsave
	ldr	r3, [r4, #4]
	mov	r1, r0
	cmp	r3, #0
	moveq	r5, r3
	beq	.L107
	ldr	r2, [r4, #92]
	ldr	r3, [r4, #100]
	ldr	r0, [r4, #104]
	add	r3, r3, r2
	sub	r3, r3, r0
	sub	r3, r3, #1
	udiv	r5, r3, r2
	mls	r5, r2, r5, r3
.L107:
	mov	r0, r4
	bl	_raw_spin_unlock_irqrestore
	mov	r0, r5
	ldrd	r4, [sp]
	ldr	r6, [sp, #8]
	add	sp, sp, #12
	ldr	pc, [sp], #4
	.fnend
	.size	gs_write_room, .-gs_write_room
	.align	2
	.syntax unified
	.arm
	.fpu softvfp
	.type	gs_chars_in_buffer, %function
gs_chars_in_buffer:
	.fnstart
	@ args = 0, pretend = 0, frame = 0
	@ frame_needed = 0, uses_anonymous_args = 0
	.save {r4, lr}
	str	r4, [sp, #-8]!
	str	lr, [sp, #4]
	ldr	r4, [r0, #280]
	mov	r0, r4
	bl	_raw_spin_lock_irqsave
	ldr	ip, [r4, #92]
	mov	r1, r0
	mov	r0, r4
	ldr	r3, [r4, #100]
	ldr	r2, [r4, #104]
	add	r2, r2, ip
	sub	r3, r2, r3
	udiv	r4, r3, ip
	mls	r4, ip, r4, r3
	bl	_raw_spin_unlock_irqrestore
	mov	r0, r4
	ldr	r4, [sp]
	add	sp, sp, #4
	ldr	pc, [sp], #4
	.fnend
	.size	gs_chars_in_buffer, .-gs_chars_in_buffer
	.align	2
	.syntax unified
	.arm
	.fpu softvfp
	.type	gs_break_ctl, %function
gs_break_ctl:
	.fnstart
	@ args = 0, pretend = 0, frame = 0
	@ frame_needed = 0, uses_anonymous_args = 0
	strd	r4, [sp, #-16]!
	.save {r4, r5, r6, lr}
	str	r6, [sp, #8]
	mov	r6, r1
	str	lr, [sp, #12]
	ldr	r5, [r0, #280]
	mov	r0, r5
	bl	_raw_spin_lock_irq
	ldr	r0, [r5, #4]
	cmp	r0, #0
	moveq	r4, r0
	beq	.L113
	ldr	r4, [r0, #116]
	cmp	r4, #0
	beq	.L113
	mov	r1, r6
	blx	r4
	mov	r4, r0
.L113:
	mov	r0, r5
	bl	_raw_spin_unlock_irq
	mov	r0, r4
	ldrd	r4, [sp]
	ldr	r6, [sp, #8]
	add	sp, sp, #12
	ldr	pc, [sp], #4
	.fnend
	.size	gs_break_ctl, .-gs_break_ctl
	.align	2
	.syntax unified
	.arm
	.fpu softvfp
	.type	gs_tiocmget, %function
gs_tiocmget:
	.fnstart
	@ args = 0, pretend = 0, frame = 0
	@ frame_needed = 0, uses_anonymous_args = 0
	strd	r4, [sp, #-16]!
	.save {r4, r5, r6, lr}
	str	r6, [sp, #8]
	str	lr, [sp, #12]
	ldr	r6, [r0, #280]
	mov	r0, r6
	bl	_raw_spin_lock_irq
	ldr	r5, [r6, #4]
	cmp	r5, #0
	mvneq	r4, #18
	beq	.L118
	ldr	r4, [r5, #100]
	cmp	r4, #0
	beq	.L119
	mov	r0, r5
	blx	r4
	subs	r4, r0, #0
	movne	r4, #2
.L119:
	ldr	r3, [r5, #104]
	cmp	r3, #0
	beq	.L121
	mov	r0, r5
	blx	r3
	cmp	r0, #0
	orrne	r4, r4, #4
.L121:
	ldrh	r3, [r5, #96]
	tst	r3, #64
	orrne	r4, r4, #64
	tst	r3, #128
	orrne	r4, r4, #128
.L118:
	mov	r0, r6
	bl	_raw_spin_unlock_irq
	mov	r0, r4
	ldrd	r4, [sp]
	ldr	r6, [sp, #8]
	add	sp, sp, #12
	ldr	pc, [sp], #4
	.fnend
	.size	gs_tiocmget, .-gs_tiocmget
	.align	2
	.syntax unified
	.arm
	.fpu softvfp
	.type	gs_tiocmset, %function
gs_tiocmset:
	.fnstart
	@ args = 0, pretend = 0, frame = 0
	@ frame_needed = 0, uses_anonymous_args = 0
	strd	r4, [sp, #-24]!
	.save {r4, r5, r6, r7, r8, lr}
	mov	r5, r2
	strd	r6, [sp, #8]
	mov	r7, r1
	str	r8, [sp, #16]
	str	lr, [sp, #20]
	ldr	r6, [r0, #280]
	mov	r0, r6
	bl	_raw_spin_lock_irq
	ldr	r8, [r6, #4]
	cmp	r8, #0
	beq	.L143
	ands	r0, r7, #128
	bne	.L165
	mov	r4, r0
.L140:
	tst	r5, #128
	beq	.L141
	ldr	r2, [r8, #124]
	cmp	r2, #0
	beq	.L141
	ldrh	r3, [r8, #96]
	mov	r1, #0
	mov	r0, r8
	bic	r3, r3, #128
	strh	r3, [r8, #96]	@ movhi
	blx	r2
	mov	r4, r0
.L141:
	tst	r7, #64
	beq	.L142
	ldr	r2, [r8, #120]
	cmp	r2, #0
	beq	.L139
	ldrh	r3, [r8, #96]
	mov	r1, #1
	mov	r0, r8
	orr	r3, r3, #64
	strh	r3, [r8, #96]	@ movhi
	blx	r2
	mov	r4, r0
.L142:
	tst	r5, #64
	beq	.L139
	ldr	r2, [r8, #120]
	cmp	r2, #0
	beq	.L139
	ldrh	r3, [r8, #96]
	mov	r0, r8
	mov	r1, #0
	bic	r3, r3, #64
	strh	r3, [r8, #96]	@ movhi
	blx	r2
	mov	r4, r0
.L139:
	mov	r0, r6
	bl	_raw_spin_unlock_irq
	mov	r0, r4
	ldrd	r4, [sp]
	ldrd	r6, [sp, #8]
	ldr	r8, [sp, #16]
	add	sp, sp, #20
	ldr	pc, [sp], #4
.L165:
	ldr	r4, [r8, #124]
	cmp	r4, #0
	beq	.L141
	ldrh	r3, [r8, #96]
	mov	r1, #1
	mov	r0, r8
	orr	r3, r3, #128
	strh	r3, [r8, #96]	@ movhi
	blx	r4
	mov	r4, r0
	b	.L140
.L143:
	mvn	r4, #18
	b	.L139
	.fnend
	.size	gs_tiocmset, .-gs_tiocmset
	.align	2
	.syntax unified
	.arm
	.fpu softvfp
	.type	gbam_wake_cb, %function
gbam_wake_cb:
	.fnstart
	@ args = 0, pretend = 0, frame = 0
	@ frame_needed = 0, uses_anonymous_args = 0
	@ link register save eliminated.
	ldr	r3, [r0, #16]
	ldr	r3, [r3, #120]
	ldr	r0, [r3]
	ldr	r3, [r0]
	ldr	r3, [r3, #4]
	cmp	r3, #0
	beq	.L167
	bx	r3
.L167:
	mvn	r0, #94
	bx	lr
	.fnend
	.size	gbam_wake_cb, .-gbam_wake_cb
	.section	.init.text,"ax",%progbits
	.align	2
	.syntax unified
	.arm
	.fpu softvfp
	.type	gsmd_ctrl_init, %function
gsmd_ctrl_init:
	.fnstart
	@ args = 0, pretend = 0, frame = 0
	@ frame_needed = 0, uses_anonymous_args = 0
	@ link register save eliminated.
	movw	r3, #:lower16:.LANCHOR0
	mov	r0, #0
	movt	r3, #:upper16:.LANCHOR0
	strb	r0, [r3]
	bx	lr
	.fnend
	.size	gsmd_ctrl_init, .-gsmd_ctrl_init
	.section	.exit.text,"ax",%progbits
	.align	2
	.syntax unified
	.arm
	.fpu softvfp
	.type	gsmd_ctrl_exit, %function
gsmd_ctrl_exit:
	.fnstart
	@ args = 0, pretend = 0, frame = 0
	@ frame_needed = 0, uses_anonymous_args = 0
	@ link register save eliminated.
	bx	lr
	.fnend
	.size	gsmd_ctrl_exit, .-gsmd_ctrl_exit
	.text
	.align	2
	.syntax unified
	.arm
	.fpu softvfp
	.type	rmnet_ctrl_open, %function
rmnet_ctrl_open:
	.fnstart
	@ args = 0, pretend = 0, frame = 0
	@ frame_needed = 0, uses_anonymous_args = 0
	strd	r4, [sp, #-16]!
	.save {r4, r5, r6, lr}
	movw	r4, #:lower16:.LANCHOR0
	movt	r4, #:upper16:.LANCHOR0
	str	r6, [sp, #8]
	ldr	r3, [r4, #4]
	str	lr, [sp, #12]
	add	r2, r3, #16
	.syntax divided
@ 60 "/run/media/tfonda/HDD/android/bacon/android_kernel_oppo_msm8974/arch/arm/include/asm/atomic.h" 1
	dmb
@ 0 "" 2
@ 111 "/run/media/tfonda/HDD/android/bacon/android_kernel_oppo_msm8974/arch/arm/include/asm/processor.h" 1
	pld	[r2]
@ 0 "" 2
@ 63 "/run/media/tfonda/HDD/android/bacon/android_kernel_oppo_msm8974/arch/arm/include/asm/atomic.h" 1
	@ atomic_add_return
1:	ldrex	r5, [r2]
	add	r5, r5, #1
	strex	r0, r5, [r2]
	teq	r0, #0
	bne	1b
@ 0 "" 2
@ 73 "/run/media/tfonda/HDD/android/bacon/android_kernel_oppo_msm8974/arch/arm/include/asm/atomic.h" 1
	dmb
@ 0 "" 2
	.arm
	.syntax unified
	cmp	r5, #1
	bne	.L171
	ldr	r3, [r4, #4]
	add	r0, r3, #52
	str	r3, [r1, #132]
	bl	_raw_spin_lock_irqsave
	ldr	r3, [r4, #4]
	mov	r1, r0
	add	r0, r3, #52
	strb	r5, [r3, #4]
	bl	_raw_spin_unlock_irqrestore
	mov	r0, #0
.L170:
	ldrd	r4, [sp]
	ldr	r6, [sp, #8]
	add	sp, sp, #12
	ldr	pc, [sp], #4
.L171:
	.syntax divided
@ 83 "/run/media/tfonda/HDD/android/bacon/android_kernel_oppo_msm8974/arch/arm/include/asm/atomic.h" 1
	@ atomic_sub
1:	ldrex	r1, [r2]
	sub	r1, r1, #1
	strex	r0, r1, [r2]
	teq	r0, #0
	bne	1b
@ 0 "" 2
	.arm
	.syntax unified
	mvn	r0, #15
	b	.L170
	.fnend
	.size	rmnet_ctrl_open, .-rmnet_ctrl_open
	.align	2
	.syntax unified
	.arm
	.fpu softvfp
	.type	rmnet_ctrl_release, %function
rmnet_ctrl_release:
	.fnstart
	@ args = 0, pretend = 0, frame = 0
	@ frame_needed = 0, uses_anonymous_args = 0
	strd	r4, [sp, #-16]!
	.save {r4, r5, r6, lr}
	mov	r5, #0
	str	r6, [sp, #8]
	str	lr, [sp, #12]
	ldr	r4, [r1, #132]
	add	r6, r4, #52
	mov	r0, r6
	bl	_raw_spin_lock_irqsave
	mov	r1, r0
	mov	r0, r6
	strb	r5, [r4, #4]
	bl	_raw_spin_unlock_irqrestore
	add	r3, r4, #16
	.syntax divided
@ 83 "/run/media/tfonda/HDD/android/bacon/android_kernel_oppo_msm8974/arch/arm/include/asm/atomic.h" 1
	@ atomic_sub
1:	ldrex	r2, [r3]
	sub	r2, r2, #1
	strex	r1, r2, [r3]
	teq	r1, #0
	bne	1b
@ 0 "" 2
	.arm
	.syntax unified
	mov	r0, r5
	ldrd	r4, [sp]
	ldr	r6, [sp, #8]
	add	sp, sp, #12
	ldr	pc, [sp], #4
	.fnend
	.size	rmnet_ctrl_release, .-rmnet_ctrl_release
	.align	2
	.syntax unified
	.arm
	.fpu softvfp
	.type	ghsic_ctrl_receive, %function
ghsic_ctrl_receive:
	.fnstart
	@ args = 0, pretend = 0, frame = 0
	@ frame_needed = 0, uses_anonymous_args = 0
	.save {r4, lr}
	str	r4, [sp, #-8]!
	subs	r4, r0, #0
	moveq	r0, r4
	str	lr, [sp, #4]
	beq	.L176
	ldr	r3, [r4, #52]
	cmp	r3, #0
	moveq	r0, r3
	beq	.L176
	ldr	r0, [r4, #8]
	blx	r3
	ldr	r3, [r4, #100]
	add	r3, r3, #1
	str	r3, [r4, #100]
.L176:
	ldr	r4, [sp]
	add	sp, sp, #4
	ldr	pc, [sp], #4
	.fnend
	.size	ghsic_ctrl_receive, .-ghsic_ctrl_receive
	.align	2
	.syntax unified
	.arm
	.fpu softvfp
	.type	ghsic_ctrl_status, %function
ghsic_ctrl_status:
	.fnstart
	@ args = 0, pretend = 0, frame = 0
	@ frame_needed = 0, uses_anonymous_args = 0
	@ link register save eliminated.
	mov	r3, r0
	ldr	r0, [r0, #8]
	str	r1, [r3, #92]
	cmp	r0, #0
	beq	.L181
	ldr	r3, [r0, #128]
	cmp	r3, #0
	beq	.L181
	bx	r3
.L181:
	bx	lr
	.fnend
	.size	ghsic_ctrl_status, .-ghsic_ctrl_status
	.section	.init.text
	.align	2
	.syntax unified
	.arm
	.fpu softvfp
	.type	gctrl_init, %function
gctrl_init:
	.fnstart
	@ args = 0, pretend = 0, frame = 0
	@ frame_needed = 0, uses_anonymous_args = 0
	@ link register save eliminated.
	mov	r0, #0
	bx	lr
	.fnend
	.size	gctrl_init, .-gctrl_init
	.text
	.align	2
	.syntax unified
	.arm
	.fpu softvfp
	.type	ghsuart_data_reset_stats, %function
ghsuart_data_reset_stats:
	.fnstart
	@ args = 0, pretend = 0, frame = 0
	@ frame_needed = 0, uses_anonymous_args = 0
	strd	r4, [sp, #-36]!
	.save {r4, r5, r6, r7, r8, r9, r10, fp, lr}
	strd	r6, [sp, #8]
	movw	r7, #:lower16:.LANCHOR0
	movt	r7, #:upper16:.LANCHOR0
	strd	r8, [sp, #16]
	ldr	r3, [r7, #8]
	strd	r10, [sp, #24]
	mov	fp, r2
	str	lr, [sp, #32]
	.pad #4
	sub	sp, sp, #4
	cmp	r3, #0
	beq	.L196
	mov	r5, #0
	add	r6, r7, #12
	mov	r9, r5
.L195:
	ldr	r4, [r6]
	cmp	r4, #0
	add	r8, r4, #104
	add	r10, r4, #72
	mov	r0, r8
	beq	.L192
	bl	_raw_spin_lock_irqsave
	mov	r1, r0
	mov	r0, r8
	str	r9, [r4, #204]
	str	r9, [r4, #212]
	add	r5, r5, #1
	add	r6, r6, #84
	bl	_raw_spin_unlock_irqrestore
	mov	r0, r10
	bl	_raw_spin_lock_irqsave
	mov	r1, r0
	mov	r0, r10
	str	r9, [r4, #208]
	bl	_raw_spin_unlock_irqrestore
	ldr	r3, [r7, #8]
	cmp	r3, r5
	bhi	.L195
.L196:
	mov	r0, fp
	add	sp, sp, #4
	@ sp needed
	ldrd	r4, [sp]
	ldrd	r6, [sp, #8]
	ldrd	r8, [sp, #16]
	ldrd	r10, [sp, #24]
	add	sp, sp, #32
	ldr	pc, [sp], #4
.L192:
	add	r5, r5, #1
	add	r6, r6, #84
	cmp	r5, r3
	bcc	.L195
	b	.L196
	.fnend
	.size	ghsuart_data_reset_stats, .-ghsuart_data_reset_stats
	.section	.init.text
	.align	2
	.syntax unified
	.arm
	.fpu softvfp
	.type	ghsuart_data_init, %function
ghsuart_data_init:
	.fnstart
	@ args = 0, pretend = 0, frame = 0
	@ frame_needed = 0, uses_anonymous_args = 0
	@ link register save eliminated.
	mvn	r0, #18
	bx	lr
	.fnend
	.size	ghsuart_data_init, .-ghsuart_data_init
	.text
	.align	2
	.global	gser_get_dtr
	.syntax unified
	.arm
	.fpu softvfp
	.type	gser_get_dtr, %function
gser_get_dtr:
	.fnstart
	@ args = 0, pretend = 0, frame = 0
	@ frame_needed = 0, uses_anonymous_args = 0
	@ link register save eliminated.
	ldrh	r0, [r0, #168]
	and	r0, r0, #1
	bx	lr
	.fnend
	.size	gser_get_dtr, .-gser_get_dtr
	.align	2
	.global	gser_get_rts
	.syntax unified
	.arm
	.fpu softvfp
	.type	gser_get_rts, %function
gser_get_rts:
	.fnstart
	@ args = 0, pretend = 0, frame = 0
	@ frame_needed = 0, uses_anonymous_args = 0
	@ link register save eliminated.
	ldrh	r0, [r0, #168]
	ubfx	r0, r0, #1, #1
	bx	lr
	.fnend
	.size	gser_get_rts, .-gser_get_rts
	.align	2
	.syntax unified
	.arm
	.fpu softvfp
	.type	ccid_bulk_open, %function
ccid_bulk_open:
	.fnstart
	@ args = 0, pretend = 0, frame = 0
	@ frame_needed = 0, uses_anonymous_args = 0
	movw	r3, #:lower16:.LANCHOR0
	strd	r4, [sp, #-24]!
	.save {r4, r5, r6, r7, r8, lr}
	movt	r3, #:upper16:.LANCHOR0
	strd	r6, [sp, #8]
	str	r8, [sp, #16]
	str	lr, [sp, #20]
	ldr	r4, [r3, #180]
	ldr	r3, [r4, #88]
	cmp	r3, #0
	beq	.L203
	ldr	r5, [r4, #144]
	cmp	r5, #0
	bne	.L204
	mov	r3, #1
	add	r7, r4, #84
	str	r5, [r4, #140]
	mov	r6, r1
	mov	r0, r7
	str	r3, [r4, #144]
	bl	_raw_spin_lock_irqsave
	mov	r1, r0
	mov	r0, r7
	str	r4, [r6, #132]
	bl	_raw_spin_unlock_irqrestore
.L201:
	mov	r0, r5
	ldrd	r4, [sp]
	ldrd	r6, [sp, #8]
	ldr	r8, [sp, #16]
	add	sp, sp, #20
	ldr	pc, [sp], #4
.L204:
	mvn	r5, #15
	b	.L201
.L203:
	mvn	r5, #18
	b	.L201
	.fnend
	.size	ccid_bulk_open, .-ccid_bulk_open
	.align	2
	.syntax unified
	.arm
	.fpu softvfp
	.type	ccid_bulk_release, %function
ccid_bulk_release:
	.fnstart
	@ args = 0, pretend = 0, frame = 0
	@ frame_needed = 0, uses_anonymous_args = 0
	@ link register save eliminated.
	ldr	r3, [r1, #132]
	mov	r0, #0
	str	r0, [r3, #144]
	bx	lr
	.fnend
	.size	ccid_bulk_release, .-ccid_bulk_release
	.align	2
	.syntax unified
	.arm
	.fpu softvfp
	.type	ccid_ctrl_open, %function
ccid_ctrl_open:
	.fnstart
	@ args = 0, pretend = 0, frame = 0
	@ frame_needed = 0, uses_anonymous_args = 0
	movw	r3, #:lower16:.LANCHOR0
	strd	r4, [sp, #-24]!
	.save {r4, r5, r6, r7, r8, lr}
	movt	r3, #:upper16:.LANCHOR0
	strd	r6, [sp, #8]
	str	r8, [sp, #16]
	str	lr, [sp, #20]
	ldr	r4, [r3, #180]
	ldr	r3, [r4, #88]
	cmp	r3, #0
	beq	.L209
	ldr	r6, [r4, #108]
	cmp	r6, #0
	bne	.L210
	mov	r3, #1
	add	r7, r4, #84
	mov	r5, r1
	mov	r0, r7
	str	r3, [r4, #108]
	bl	_raw_spin_lock_irqsave
	mov	r1, r0
	mov	r0, r7
	str	r4, [r5, #132]
	bl	_raw_spin_unlock_irqrestore
.L207:
	mov	r0, r6
	ldrd	r4, [sp]
	ldrd	r6, [sp, #8]
	ldr	r8, [sp, #16]
	add	sp, sp, #20
	ldr	pc, [sp], #4
.L210:
	mvn	r6, #15
	b	.L207
.L209:
	mvn	r6, #18
	b	.L207
	.fnend
	.size	ccid_ctrl_open, .-ccid_ctrl_open
	.align	2
	.syntax unified
	.arm
	.fpu softvfp
	.type	ccid_ctrl_release, %function
ccid_ctrl_release:
	.fnstart
	@ args = 0, pretend = 0, frame = 0
	@ frame_needed = 0, uses_anonymous_args = 0
	@ link register save eliminated.
	ldr	r3, [r1, #132]
	mov	r0, #0
	str	r0, [r3, #108]
	bx	lr
	.fnend
	.size	ccid_ctrl_release, .-ccid_ctrl_release
	.align	2
	.syntax unified
	.arm
	.fpu softvfp
	.type	rndis_response_available, %function
rndis_response_available:
	.fnstart
	@ args = 0, pretend = 0, frame = 0
	@ frame_needed = 0, uses_anonymous_args = 0
	strd	r4, [sp, #-16]!
	.save {r4, r5, r6, lr}
	mov	r4, r0
	add	r5, r0, #168
	str	r6, [sp, #8]
	str	lr, [sp, #12]
	ldr	r1, [r0, #164]
	ldr	r0, [r1]
	.syntax divided
@ 60 "/run/media/tfonda/HDD/android/bacon/android_kernel_oppo_msm8974/arch/arm/include/asm/atomic.h" 1
	dmb
@ 0 "" 2
@ 111 "/run/media/tfonda/HDD/android/bacon/android_kernel_oppo_msm8974/arch/arm/include/asm/processor.h" 1
	pld	[r5]
@ 0 "" 2
@ 63 "/run/media/tfonda/HDD/android/bacon/android_kernel_oppo_msm8974/arch/arm/include/asm/atomic.h" 1
	@ atomic_add_return
1:	ldrex	r3, [r5]
	add	r3, r3, #1
	strex	r2, r3, [r5]
	teq	r2, #0
	bne	1b
@ 0 "" 2
@ 73 "/run/media/tfonda/HDD/android/bacon/android_kernel_oppo_msm8974/arch/arm/include/asm/atomic.h" 1
	dmb
@ 0 "" 2
	.arm
	.syntax unified
	cmp	r3, #1
	bne	.L213
	ldr	r2, [r4, #160]
	ldr	r2, [r2]
	cmp	r2, #0
	beq	.L213
	mov	ip, #0
	mov	r2, #32
	stm	r0, {r3, ip}
	ldr	r0, [r4, #160]
	ldr	r3, [r0, #8]
	ldr	r3, [r3, #16]
	blx	r3
	cmp	r0, #0
	beq	.L213
	.syntax divided
@ 83 "/run/media/tfonda/HDD/android/bacon/android_kernel_oppo_msm8974/arch/arm/include/asm/atomic.h" 1
	@ atomic_sub
1:	ldrex	r3, [r5]
	sub	r3, r3, #1
	strex	r2, r3, [r5]
	teq	r2, #0
	bne	1b
@ 0 "" 2
	.arm
	.syntax unified
.L213:
	ldrd	r4, [sp]
	ldr	r6, [sp, #8]
	add	sp, sp, #12
	ldr	pc, [sp], #4
	.fnend
	.size	rndis_response_available, .-rndis_response_available
	.align	2
	.syntax unified
	.arm
	.fpu softvfp
	.type	rndis_response_complete, %function
rndis_response_complete:
	.fnstart
	@ args = 0, pretend = 0, frame = 0
	@ frame_needed = 0, uses_anonymous_args = 0
	strd	r4, [sp, #-16]!
	.save {r4, r5, r6, lr}
	ldr	r4, [r1, #32]
	str	r6, [sp, #8]
	str	lr, [sp, #12]
	ldr	r2, [r4, #20]
	cmp	r2, #0
	beq	.L224
	ldr	r2, [r2, #24]
	cmp	r2, #0
	beq	.L224
	ldr	r3, [r1, #44]
	add	r3, r3, #108
	bics	r3, r3, #4
	streq	r3, [r4, #168]
	beq	.L224
	ldr	r3, [r4, #160]
	cmp	r3, r0
	beq	.L239
.L224:
	ldrd	r4, [sp]
	ldr	r6, [sp, #8]
	add	sp, sp, #12
	ldr	pc, [sp], #4
.L239:
	add	r5, r4, #168
	.syntax divided
@ 99 "/run/media/tfonda/HDD/android/bacon/android_kernel_oppo_msm8974/arch/arm/include/asm/atomic.h" 1
	dmb
@ 0 "" 2
@ 111 "/run/media/tfonda/HDD/android/bacon/android_kernel_oppo_msm8974/arch/arm/include/asm/processor.h" 1
	pld	[r5]
@ 0 "" 2
@ 102 "/run/media/tfonda/HDD/android/bacon/android_kernel_oppo_msm8974/arch/arm/include/asm/atomic.h" 1
	@ atomic_sub_return
1:	ldrex	r3, [r5]
	sub	r3, r3, #1
	strex	r2, r3, [r5]
	teq	r2, #0
	bne	1b
@ 0 "" 2
@ 112 "/run/media/tfonda/HDD/android/bacon/android_kernel_oppo_msm8974/arch/arm/include/asm/atomic.h" 1
	dmb
@ 0 "" 2
	.arm
	.syntax unified
	cmp	r3, #0
	beq	.L224
	ldr	r0, [r4, #160]
	mov	r2, #32
	ldr	r3, [r0, #8]
	ldr	r3, [r3, #16]
	blx	r3
	cmp	r0, #0
	beq	.L224
	.syntax divided
@ 83 "/run/media/tfonda/HDD/android/bacon/android_kernel_oppo_msm8974/arch/arm/include/asm/atomic.h" 1
	@ atomic_sub
1:	ldrex	r3, [r5]
	sub	r3, r3, #1
	strex	r2, r3, [r5]
	teq	r2, #0
	bne	1b
@ 0 "" 2
	.arm
	.syntax unified
	b	.L224
	.fnend
	.size	rndis_response_complete, .-rndis_response_complete
	.align	2
	.syntax unified
	.arm
	.fpu softvfp
	.type	ecm_qc_get_alt, %function
ecm_qc_get_alt:
	.fnstart
	@ args = 0, pretend = 0, frame = 0
	@ frame_needed = 0, uses_anonymous_args = 0
	@ link register save eliminated.
	ldrb	r3, [r0, #112]	@ zero_extendqisi2
	cmp	r3, r1
	beq	.L242
	ldr	r3, [r0, #80]
	ldr	r0, [r3]
	subs	r0, r0, #0
	movne	r0, #1
	bx	lr
.L242:
	mov	r0, #0
	bx	lr
	.fnend
	.size	ecm_qc_get_alt, .-ecm_qc_get_alt
	.align	2
	.syntax unified
	.arm
	.fpu softvfp
	.type	mbim_get_alt, %function
mbim_get_alt:
	.fnstart
	@ args = 0, pretend = 0, frame = 0
	@ frame_needed = 0, uses_anonymous_args = 0
	@ link register save eliminated.
	ldrb	r3, [r0, #188]	@ zero_extendqisi2
	cmp	r3, r1
	beq	.L245
	ldrb	r3, [r0, #189]	@ zero_extendqisi2
	cmp	r3, r1
	bne	.L246
	ldrb	r0, [r0, #190]	@ zero_extendqisi2
	bx	lr
.L245:
	mov	r0, #0
	bx	lr
.L246:
	mvn	r0, #21
	bx	lr
	.fnend
	.size	mbim_get_alt, .-mbim_get_alt
	.align	2
	.syntax unified
	.arm
	.fpu softvfp
	.type	ecm_get_alt, %function
ecm_get_alt:
	.fnstart
	@ args = 0, pretend = 0, frame = 0
	@ frame_needed = 0, uses_anonymous_args = 0
	@ link register save eliminated.
	ldrb	r3, [r0, #140]	@ zero_extendqisi2
	cmp	r3, r1
	beq	.L249
	ldr	r3, [r0, #80]
	ldr	r0, [r3]
	subs	r0, r0, #0
	movne	r0, #1
	bx	lr
.L249:
	mov	r0, #0
	bx	lr
	.fnend
	.size	ecm_get_alt, .-ecm_get_alt
	.align	2
	.syntax unified
	.arm
	.fpu softvfp
	.type	ueth_change_mtu, %function
ueth_change_mtu:
	.fnstart
	@ args = 0, pretend = 0, frame = 0
	@ frame_needed = 0, uses_anonymous_args = 0
	strd	r4, [sp, #-24]!
	.save {r4, r5, r6, r7, r8, lr}
	mov	r4, r0
	strd	r6, [sp, #8]
	add	r7, r0, #1216
	mov	r6, r1
	mov	r0, r7
	str	r8, [sp, #16]
	str	lr, [sp, #20]
	bl	_raw_spin_lock_irqsave
	ldr	r3, [r4, #1220]
	mov	r1, r0
	cmp	r3, #0
	bne	.L252
	sub	r0, r6, #15
	movw	r2, #1499
	cmp	r0, r2
	bhi	.L253
	mov	r5, r3
	str	r6, [r4, #364]
.L251:
	mov	r0, r7
	bl	_raw_spin_unlock_irqrestore
	mov	r0, r5
	ldrd	r4, [sp]
	ldrd	r6, [sp, #8]
	ldr	r8, [sp, #16]
	add	sp, sp, #20
	ldr	pc, [sp], #4
.L252:
	mvn	r5, #15
	b	.L251
.L253:
	mvn	r5, #33
	b	.L251
	.fnend
	.size	ueth_change_mtu, .-ueth_change_mtu
	.align	2
	.syntax unified
	.arm
	.fpu softvfp
	.type	prealloc, %function
prealloc:
	.fnstart
	@ args = 0, pretend = 0, frame = 0
	@ frame_needed = 0, uses_anonymous_args = 0
	cmp	r2, #0
	beq	.L276
	strd	r4, [sp, #-24]!
	.save {r4, r5, r6, r7, r8, lr}
	mov	r5, r0
	strd	r6, [sp, #8]
	mov	r6, r1
	str	r8, [sp, #16]
	str	lr, [sp, #20]
	ldr	r3, [r0]
	cmp	r0, r3
	sub	r1, r3, #36
	beq	.L257
	sub	r2, r2, #1
	b	.L258
.L260:
	subs	r2, r2, #1
	bcc	.L279
.L258:
	ldr	r1, [r1, #36]
	cmp	r5, r1
	sub	r1, r1, #36
	bne	.L260
	ldr	r3, [r6, #28]
	cmp	r2, #0
	sub	r4, r2, #1
	ldrb	r7, [r3, #2]	@ zero_extendqisi2
	lsr	r7, r7, #7
	beq	.L261
.L265:
	movw	r2, #:lower16:tx_complete
	movw	r3, #:lower16:rx_complete
	cmp	r7, #0
	movt	r2, #:upper16:tx_complete
	movt	r3, #:upper16:rx_complete
	movne	r7, r2
	moveq	r7, r3
	b	.L264
.L262:
	str	r7, [r3, #28]
	ldr	r1, [r5]
	cmp	r4, #0
	mov	r4, ip
	str	r2, [r1, #4]
	str	r1, [r3, #36]
	str	r5, [r3, #40]
	str	r2, [r5]
	beq	.L261
.L264:
	ldr	r3, [r6, #8]
	mov	r1, #32
	mov	r0, r6
	ldr	r3, [r3, #8]
	blx	r3
	subs	r3, r0, #0
	sub	ip, r4, #1
	add	r2, r3, #36
	bne	.L262
	ldr	r3, [r5]
	cmp	r5, r3
	mvneq	r0, #11
	beq	.L255
.L261:
	mov	r0, #0
.L255:
	ldrd	r4, [sp]
	ldrd	r6, [sp, #8]
	ldr	r8, [sp, #16]
	add	sp, sp, #20
	ldr	pc, [sp], #4
.L279:
	mov	r8, #256
	mov	r7, #512
.L259:
	ldr	r4, [r1, #36]
	mov	r0, r6
	ldr	r3, [r1, #40]
	str	r3, [r4, #4]
	str	r4, [r3]
	str	r8, [r1, #36]
	str	r7, [r1, #40]
	ldr	r3, [r6, #8]
	ldr	r3, [r3, #12]
	blx	r3
	cmp	r5, r4
	sub	r1, r4, #36
	bne	.L259
	b	.L261
.L257:
	ldr	r3, [r6, #28]
	sub	r4, r2, #1
	ldrb	r7, [r3, #2]	@ zero_extendqisi2
	lsr	r7, r7, #7
	b	.L265
.L276:
	mvn	r0, #11
	bx	lr
	.fnend
	.size	prealloc, .-prealloc
	.align	2
	.syntax unified
	.arm
	.fpu softvfp
	.type	ueth_qc_change_mtu, %function
ueth_qc_change_mtu:
	.fnstart
	@ args = 0, pretend = 0, frame = 0
	@ frame_needed = 0, uses_anonymous_args = 0
	strd	r4, [sp, #-24]!
	.save {r4, r5, r6, r7, r8, lr}
	mov	r4, r0
	strd	r6, [sp, #8]
	add	r7, r0, #1216
	mov	r6, r1
	mov	r0, r7
	str	r8, [sp, #16]
	str	lr, [sp, #20]
	bl	_raw_spin_lock_irqsave
	ldr	r3, [r4, #1220]
	mov	r1, r0
	cmp	r3, #0
	bne	.L282
	sub	r0, r6, #15
	movw	r2, #1499
	cmp	r0, r2
	bhi	.L283
	mov	r5, r3
	str	r6, [r4, #364]
.L281:
	mov	r0, r7
	bl	_raw_spin_unlock_irqrestore
	mov	r0, r5
	ldrd	r4, [sp]
	ldrd	r6, [sp, #8]
	ldr	r8, [sp, #16]
	add	sp, sp, #20
	ldr	pc, [sp], #4
.L282:
	mvn	r5, #15
	b	.L281
.L283:
	mvn	r5, #33
	b	.L281
	.fnend
	.size	ueth_qc_change_mtu, .-ueth_qc_change_mtu
	.align	2
	.syntax unified
	.arm
	.fpu softvfp
	.type	eth_qc_start_xmit, %function
eth_qc_start_xmit:
	.fnstart
	@ args = 0, pretend = 0, frame = 0
	@ frame_needed = 0, uses_anonymous_args = 0
	@ link register save eliminated.
	mov	r0, #0
	bx	lr
	.fnend
	.size	eth_qc_start_xmit, .-eth_qc_start_xmit
	.align	2
	.syntax unified
	.arm
	.fpu softvfp
	.type	f_audio_get_alt, %function
f_audio_get_alt:
	.fnstart
	@ args = 0, pretend = 0, frame = 0
	@ frame_needed = 0, uses_anonymous_args = 0
	@ link register save eliminated.
	movw	r3, #:lower16:.LANCHOR1
	movt	r3, #:upper16:.LANCHOR1
	ldrb	r2, [r3, #8]	@ zero_extendqisi2
	cmp	r2, r1
	beq	.L290
	ldrb	r3, [r3, #9]	@ zero_extendqisi2
	cmp	r3, r1
	ldrbeq	r0, [r0, #241]	@ zero_extendqisi2
	movne	r0, #0
	bx	lr
.L290:
	ldrb	r0, [r0, #240]	@ zero_extendqisi2
	bx	lr
	.fnend
	.size	f_audio_get_alt, .-f_audio_get_alt
	.align	2
	.syntax unified
	.arm
	.fpu softvfp
	.type	f_audio_disable, %function
f_audio_disable:
	.fnstart
	@ args = 0, pretend = 0, frame = 0
	@ frame_needed = 0, uses_anonymous_args = 0
	@ link register save eliminated.
	movw	r3, #:lower16:.LANCHOR0
	mov	r2, #0
	movt	r3, #:upper16:.LANCHOR0
	strb	r2, [r3, #184]
	bx	lr
	.fnend
	.size	f_audio_disable, .-f_audio_disable
	.align	2
	.syntax unified
	.arm
	.fpu softvfp
	.type	generic_set_cmd, %function
generic_set_cmd:
	.fnstart
	@ args = 0, pretend = 0, frame = 0
	@ frame_needed = 0, uses_anonymous_args = 0
	@ link register save eliminated.
	mov	r3, r0
	add	r1, r1, #4
	mov	r0, #0
	str	r2, [r3, r1, lsl #2]
	bx	lr
	.fnend
	.size	generic_set_cmd, .-generic_set_cmd
	.align	2
	.syntax unified
	.arm
	.fpu softvfp
	.type	generic_get_cmd, %function
generic_get_cmd:
	.fnstart
	@ args = 0, pretend = 0, frame = 0
	@ frame_needed = 0, uses_anonymous_args = 0
	@ link register save eliminated.
	add	r1, r1, #4
	ldr	r0, [r0, r1, lsl #2]
	bx	lr
	.fnend
	.size	generic_get_cmd, .-generic_get_cmd
	.align	2
	.syntax unified
	.arm
	.fpu softvfp
	.type	ncm_ep0out_complete, %function
ncm_ep0out_complete:
	.fnstart
	@ args = 0, pretend = 0, frame = 0
	@ frame_needed = 0, uses_anonymous_args = 0
	@ link register save eliminated.
	mov	r2, #0
	ldr	ip, [r1, #32]
	ldr	r3, [r1, #44]
	str	r2, [r1, #32]
	cmp	r3, r2
	bne	.L295
	ldr	r3, [r1, #4]
	ldr	r2, [r1, #48]
	cmp	r2, r3
	bne	.L295
	ldr	r3, [r1]
	ldr	r3, [r3]	@ unaligned
	cmp	r3, #2048
	bcc	.L295
	movw	r2, #:lower16:.LANCHOR1
	movt	r2, #:upper16:.LANCHOR1
	ldr	r2, [r2, #16]
	cmp	r2, r3
	bcc	.L295
	str	r3, [ip, #104]
	bx	lr
.L295:
	ldr	r3, [r0, #8]
	mov	r1, #1
	ldr	r3, [r3, #24]
	bx	r3
	.fnend
	.size	ncm_ep0out_complete, .-ncm_ep0out_complete
	.align	2
	.syntax unified
	.arm
	.fpu softvfp
	.type	ncm_get_alt, %function
ncm_get_alt:
	.fnstart
	@ args = 0, pretend = 0, frame = 0
	@ frame_needed = 0, uses_anonymous_args = 0
	@ link register save eliminated.
	ldrb	r3, [r0, #140]	@ zero_extendqisi2
	cmp	r3, r1
	beq	.L300
	ldr	r3, [r0, #80]
	ldr	r0, [r3]
	subs	r0, r0, #0
	movne	r0, #1
	bx	lr
.L300:
	mov	r0, #0
	bx	lr
	.fnend
	.size	ncm_get_alt, .-ncm_get_alt
	.align	2
	.syntax unified
	.arm
	.fpu softvfp
	.type	diag_function_init, %function
diag_function_init:
	.fnstart
	@ args = 0, pretend = 0, frame = 0
	@ frame_needed = 0, uses_anonymous_args = 0
	@ link register save eliminated.
	movw	r3, #:lower16:.LANCHOR0
	mov	r0, #0
	movt	r3, #:upper16:.LANCHOR0
	add	r2, r3, #188
	str	r2, [r3, #188]
	str	r2, [r3, #192]
	bx	lr
	.fnend
	.size	diag_function_init, .-diag_function_init
	.align	2
	.syntax unified
	.arm
	.fpu softvfp
	.type	qdss_function_init, %function
qdss_function_init:
	.fnstart
	@ args = 0, pretend = 0, frame = 0
	@ frame_needed = 0, uses_anonymous_args = 0
	@ link register save eliminated.
	mov	r0, #0
	bx	lr
	.fnend
	.size	qdss_function_init, .-qdss_function_init
	.align	2
	.syntax unified
	.arm
	.fpu softvfp
	.type	audio_source_function_unbind_config, %function
audio_source_function_unbind_config:
	.fnstart
	@ args = 0, pretend = 0, frame = 0
	@ frame_needed = 0, uses_anonymous_args = 0
	@ link register save eliminated.
	ldr	r3, [r0, #4]
	mvn	r2, #0
	str	r2, [r3]
	str	r2, [r3, #4]
	bx	lr
	.fnend
	.size	audio_source_function_unbind_config, .-audio_source_function_unbind_config
	.align	2
	.syntax unified
	.arm
	.fpu softvfp
	.type	uasp_function_bind_config, %function
uasp_function_bind_config:
	.fnstart
	@ args = 0, pretend = 0, frame = 0
	@ frame_needed = 0, uses_anonymous_args = 0
	@ link register save eliminated.
	mvn	r0, #18
	bx	lr
	.fnend
	.size	uasp_function_bind_config, .-uasp_function_bind_config
	.align	2
	.syntax unified
	.arm
	.fpu softvfp
	.type	android_unbind_config, %function
android_unbind_config:
	.fnstart
	@ args = 0, pretend = 0, frame = 0
	@ frame_needed = 0, uses_anonymous_args = 0
	movw	r1, #:lower16:.LANCHOR0
	strd	r4, [sp, #-16]!
	.save {r4, r5, r6, lr}
	mov	r5, r0
	movt	r1, #:upper16:.LANCHOR0
	str	r6, [sp, #8]
	str	lr, [sp, #12]
	ldr	r3, [r1, #196]!
	ldr	r0, [r0, #24]
	cmp	r3, r1
	beq	.L306
	sub	r3, r3, #208
	b	.L307
.L318:
	ldr	r3, [r3, #208]
	cmp	r3, r1
	sub	r3, r3, #208
	beq	.L306
.L307:
	ldr	r2, [r3, #8]
	cmp	r0, r2
	bne	.L318
.L306:
	ldr	r3, [r0]
	mov	r6, r5
	ldrb	r2, [r3, #386]	@ zero_extendqisi2
	cmp	r2, #0
	movne	r2, #0
	strbne	r2, [r3, #386]
	ldr	r4, [r6, #112]!
	cmp	r6, r4
	sub	r4, r4, #4
	beq	.L305
.L312:
	ldr	r0, [r4]
	mov	r1, r5
	ldr	r3, [r0, #44]
	cmp	r3, #0
	beq	.L310
	blx	r3
	ldr	r4, [r4, #4]
	cmp	r6, r4
	sub	r4, r4, #4
	bne	.L312
.L305:
	ldrd	r4, [sp]
	ldr	r6, [sp, #8]
	add	sp, sp, #12
	ldr	pc, [sp], #4
.L310:
	ldr	r4, [r4, #4]
	cmp	r6, r4
	sub	r4, r4, #4
	bne	.L312
	b	.L305
	.fnend
	.size	android_unbind_config, .-android_unbind_config
	.align	2
	.syntax unified
	.arm
	.fpu softvfp
	.type	audio_set_endpoint_complete, %function
audio_set_endpoint_complete:
	.fnstart
	@ args = 0, pretend = 0, frame = 8
	@ frame_needed = 0, uses_anonymous_args = 0
	strd	r4, [sp, #-16]!
	.save {r4, r5, r6, lr}
	mov	r2, #0
	str	r6, [sp, #8]
	str	lr, [sp, #12]
	.pad #8
	sub	sp, sp, #8
	ldr	r5, [r1, #32]
	ldr	r4, [r1, #44]
	str	r2, [sp, #4]
	cmp	r4, r2
	bne	.L319
	ldr	r6, [r5, #264]
	cmp	r6, r2
	beq	.L319
	add	r0, sp, #4
	ldm	r1, {r1, r2}
	bl	memcpy
	ldrb	r1, [r5, #260]	@ zero_extendqisi2
	mov	r0, r6
	ldr	r2, [sp, #4]
	ldr	r3, [r6, #36]
	blx	r3
	str	r4, [r5, #264]
.L319:
	add	sp, sp, #8
	@ sp needed
	ldrd	r4, [sp]
	ldr	r6, [sp, #8]
	add	sp, sp, #12
	ldr	pc, [sp], #4
	.fnend
	.size	audio_set_endpoint_complete, .-audio_set_endpoint_complete
	.align	2
	.syntax unified
	.arm
	.fpu softvfp
	.type	midi_alloc_ep_req, %function
midi_alloc_ep_req:
	.fnstart
	@ args = 0, pretend = 0, frame = 0
	@ frame_needed = 0, uses_anonymous_args = 0
	strd	r4, [sp, #-16]!
	.save {r4, r5, r6, lr}
	mov	r5, r1
	mov	r1, #32
	str	r6, [sp, #8]
	mov	r6, r0
	str	lr, [sp, #12]
	ldr	r3, [r0, #8]
	ldr	r3, [r3, #8]
	blx	r3
	subs	r4, r0, #0
	beq	.L325
	mov	r0, r5
	mov	r1, #32
	str	r5, [r4, #4]
	bl	__kmalloc
	cmp	r0, #0
	mov	r3, r0
	str	r0, [r4]
	beq	.L331
.L325:
	mov	r0, r4
	ldrd	r4, [sp]
	ldr	r6, [sp, #8]
	add	sp, sp, #12
	ldr	pc, [sp], #4
.L331:
	ldr	r2, [r6, #8]
	mov	r1, r4
	mov	r0, r6
	mov	r4, r3
	ldr	r3, [r2, #12]
	blx	r3
	b	.L325
	.fnend
	.size	midi_alloc_ep_req, .-midi_alloc_ep_req
	.align	2
	.syntax unified
	.arm
	.fpu softvfp
	.type	adb_request_new, %function
adb_request_new:
	.fnstart
	@ args = 0, pretend = 0, frame = 0
	@ frame_needed = 0, uses_anonymous_args = 0
	strd	r4, [sp, #-16]!
	.save {r4, r5, r6, lr}
	mov	r5, r0
	str	r6, [sp, #8]
	mov	r6, r1
	mov	r1, #208
	str	lr, [sp, #12]
	ldr	r2, [r0, #8]
	ldr	r3, [r2, #8]
	blx	r3
	subs	r4, r0, #0
	beq	.L332
	mov	r0, r6
	mov	r1, #208
	bl	__kmalloc
	cmp	r0, #0
	mov	r3, r0
	str	r0, [r4]
	beq	.L338
.L332:
	mov	r0, r4
	ldrd	r4, [sp]
	ldr	r6, [sp, #8]
	add	sp, sp, #12
	ldr	pc, [sp], #4
.L338:
	ldr	r2, [r5, #8]
	mov	r1, r4
	mov	r0, r5
	mov	r4, r3
	ldr	r3, [r2, #12]
	blx	r3
	b	.L332
	.fnend
	.size	adb_request_new, .-adb_request_new
	.set	mtp_request_new,adb_request_new
	.align	2
	.syntax unified
	.arm
	.fpu softvfp
	.type	ncm_function_init, %function
ncm_function_init:
	.fnstart
	@ args = 0, pretend = 0, frame = 0
	@ frame_needed = 0, uses_anonymous_args = 0
	movw	r3, #:lower16:kmalloc_caches
	.save {r4, lr}
	str	r4, [sp, #-8]!
	mov	r4, r0
	movt	r3, #:upper16:kmalloc_caches
	str	lr, [sp, #4]
	ldr	r0, [r3, #24]
	cmp	r0, #0
	moveq	r3, #16
	streq	r3, [r4, #4]
	beq	.L339
	movw	r1, #32976
	bl	kmem_cache_alloc
	cmp	r0, #0
	mov	r3, r0
	movne	r0, #0
	mvneq	r0, #11
	str	r3, [r4, #4]
.L339:
	ldr	r4, [sp]
	add	sp, sp, #4
	ldr	pc, [sp], #4
	.fnend
	.size	ncm_function_init, .-ncm_function_init
	.align	2
	.syntax unified
	.arm
	.fpu softvfp
	.type	rndis_function_init, %function
rndis_function_init:
	.fnstart
	@ args = 0, pretend = 0, frame = 0
	@ frame_needed = 0, uses_anonymous_args = 0
	movw	r3, #:lower16:kmalloc_caches
	.save {r4, lr}
	str	r4, [sp, #-8]!
	mov	r4, r0
	movt	r3, #:upper16:kmalloc_caches
	str	lr, [sp, #4]
	ldr	r0, [r3, #36]
	cmp	r0, #0
	moveq	r3, #16
	streq	r3, [r4, #4]
	beq	.L344
	movw	r1, #32976
	bl	kmem_cache_alloc
	cmp	r0, #0
	mov	r3, r0
	movne	r0, #0
	mvneq	r0, #11
	str	r3, [r4, #4]
.L344:
	ldr	r4, [sp]
	add	sp, sp, #4
	ldr	pc, [sp], #4
	.fnend
	.size	rndis_function_init, .-rndis_function_init
	.align	2
	.syntax unified
	.arm
	.fpu softvfp
	.type	audio_source_function_init, %function
audio_source_function_init:
	.fnstart
	@ args = 0, pretend = 0, frame = 0
	@ frame_needed = 0, uses_anonymous_args = 0
	movw	r3, #:lower16:kmalloc_caches
	.save {r4, lr}
	str	r4, [sp, #-8]!
	mov	r4, r0
	movt	r3, #:upper16:kmalloc_caches
	str	lr, [sp, #4]
	ldr	r0, [r3, #24]
	cmp	r0, #0
	beq	.L352
	movw	r1, #32976
	bl	kmem_cache_alloc
	subs	r3, r0, #0
	beq	.L355
.L350:
	mvn	r2, #0
	mov	r0, #0
	str	r2, [r3]
	str	r2, [r3, #4]
	str	r3, [r4, #4]
.L349:
	ldr	r4, [sp]
	add	sp, sp, #4
	ldr	pc, [sp], #4
.L352:
	mov	r3, #16
	b	.L350
.L355:
	mvn	r0, #11
	b	.L349
	.fnend
	.size	audio_source_function_init, .-audio_source_function_init
	.align	2
	.syntax unified
	.arm
	.fpu softvfp
	.type	midi_function_init, %function
midi_function_init:
	.fnstart
	@ args = 0, pretend = 0, frame = 0
	@ frame_needed = 0, uses_anonymous_args = 0
	movw	r3, #:lower16:kmalloc_caches
	.save {r4, lr}
	str	r4, [sp, #-8]!
	mov	r4, r0
	movt	r3, #:upper16:kmalloc_caches
	str	lr, [sp, #4]
	ldr	r0, [r3, #24]
	cmp	r0, #0
	beq	.L362
	movw	r1, #32976
	bl	kmem_cache_alloc
	cmp	r0, #0
	mov	r3, r0
	str	r0, [r4, #4]
	beq	.L360
.L358:
	mvn	r2, #0
	mov	r0, #0
	str	r2, [r3]
	str	r2, [r3, #4]
.L356:
	ldr	r4, [sp]
	add	sp, sp, #4
	ldr	pc, [sp], #4
.L362:
	mov	r2, #16
	mov	r3, r2
	str	r2, [r4, #4]
	b	.L358
.L360:
	mvn	r0, #11
	b	.L356
	.fnend
	.size	midi_function_init, .-midi_function_init
	.align	2
	.syntax unified
	.arm
	.fpu softvfp
	.type	ccid_function_unbind, %function
ccid_function_unbind:
	.fnstart
	@ args = 0, pretend = 0, frame = 0
	@ frame_needed = 0, uses_anonymous_args = 0
	.save {r4, lr}
	str	r4, [sp, #-8]!
	mov	r4, r1
	str	lr, [sp, #4]
	ldr	r3, [r0, #24]
	ldr	r3, [r3]
	ldr	r3, [r3, #20]
	cmp	r3, #2
	bhi	.L366
.L364:
	ldr	lr, [sp, #4]
	ldr	r0, [r4, #8]
	ldr	r4, [sp]
	add	sp, sp, #8
	b	kfree
.L366:
	ldr	r0, [r1, #12]
	bl	kfree
	b	.L364
	.fnend
	.size	ccid_function_unbind, .-ccid_function_unbind
	.align	2
	.syntax unified
	.arm
	.fpu softvfp
	.type	diag_function_unbind, %function
diag_function_unbind:
	.fnstart
	@ args = 0, pretend = 0, frame = 0
	@ frame_needed = 0, uses_anonymous_args = 0
	strd	r4, [sp, #-16]!
	.save {r4, r5, r6, lr}
	mov	r4, r1
	str	r6, [sp, #8]
	str	lr, [sp, #12]
	ldr	r3, [r0, #24]
	ldr	r3, [r3]
	ldr	r3, [r3, #20]
	cmp	r3, #4
	bhi	.L375
	cmp	r3, #2
	bhi	.L376
.L369:
	ldr	r0, [r4, #8]
	bl	kfree
	ldr	r3, [r4, #116]
	cmp	r3, #0
	beq	.L370
	ldr	r2, [r3, #20]
	cmp	r2, r4
	moveq	r2, #0
	streq	r2, [r3, #20]
.L370:
	ldrd	r2, [r4, #132]
	mov	ip, #256
	mov	r1, #512
	add	r6, r4, #100
	mov	r0, r6
	str	r3, [r2, #4]
	str	r2, [r3]
	str	ip, [r4, #132]
	str	r1, [r4, #136]
	bl	_raw_spin_lock_irqsave
	mov	r5, r0
	mov	r0, r4
	bl	free_reqs
	mov	r0, r6
	mov	r1, r5
	bl	_raw_spin_unlock_irqrestore
	mov	r0, r4
	ldrd	r4, [sp]
	ldr	r6, [sp, #8]
	ldr	lr, [sp, #12]
	add	sp, sp, #16
	b	kfree
.L375:
	mov	r5, r0
	ldr	r0, [r1, #16]
	bl	kfree
	ldr	r3, [r5, #24]
	ldr	r3, [r3]
	ldr	r3, [r3, #20]
	cmp	r3, #2
	bls	.L369
.L376:
	ldr	r0, [r4, #12]
	bl	kfree
	b	.L369
	.fnend
	.size	diag_function_unbind, .-diag_function_unbind
	.align	2
	.syntax unified
	.arm
	.fpu softvfp
	.type	rmnet_smd_free_buf, %function
rmnet_smd_free_buf:
	.fnstart
	@ args = 0, pretend = 0, frame = 0
	@ frame_needed = 0, uses_anonymous_args = 0
	mov	r3, #0
	strd	r4, [sp, #-32]!
	.save {r4, r5, r6, r7, r8, r9, r10, lr}
	mov	r5, r0
	strd	r6, [sp, #8]
	strd	r8, [sp, #16]
	mov	r8, r0
	str	r10, [sp, #24]
	str	lr, [sp, #28]
	str	r3, [r0, #416]
	str	r3, [r0, #420]
	str	r3, [r0, #424]
	str	r3, [r0, #428]
	str	r3, [r0, #432]
	str	r3, [r0, #436]
	str	r3, [r0, #440]
	str	r3, [r0, #444]
	ldr	r3, [r8, #132]!
	cmp	r3, r8
	ldr	r4, [r3]
	movne	r10, #256
	movne	r9, #512
	beq	.L381
.L378:
	ldr	r2, [r3, #4]
	mov	r6, r3
	str	r2, [r4, #4]
	str	r4, [r2]
	str	r10, [r3]
	str	r9, [r3, #4]
	ldr	r7, [r5, #80]
	ldr	r0, [r6, #-36]!
	bl	kfree
	ldr	r3, [r7, #8]
	mov	r0, r7
	mov	r1, r6
	ldr	r3, [r3, #12]
	blx	r3
	cmp	r8, r4
	mov	r3, r4
	ldr	r4, [r4]
	bne	.L378
.L381:
	mov	r8, r5
	ldr	r3, [r8, #140]!
	cmp	r3, r8
	ldr	r4, [r3]
	movne	r10, #256
	movne	r9, #512
	beq	.L380
.L379:
	ldr	r2, [r3, #4]
	mov	r6, r3
	str	r2, [r4, #4]
	str	r4, [r2]
	str	r10, [r3]
	str	r9, [r3, #4]
	ldr	r7, [r5, #84]
	ldr	r0, [r6, #-36]!
	bl	kfree
	ldr	r3, [r7, #8]
	mov	r0, r7
	mov	r1, r6
	ldr	r3, [r3, #12]
	blx	r3
	cmp	r8, r4
	mov	r3, r4
	ldr	r4, [r4]
	bne	.L379
.L380:
	mov	r7, r5
	ldr	r3, [r7, #100]!
	cmp	r3, r7
	ldr	r4, [r3]
	movne	r9, #256
	movne	r8, #512
	beq	.L383
.L382:
	ldr	r2, [r3, #4]
	mov	r6, r3
	str	r2, [r4, #4]
	str	r4, [r2]
	str	r9, [r3]
	str	r8, [r3, #4]
	ldr	r0, [r6, #-8]!
	bl	kfree
	mov	r0, r6
	bl	kfree
	cmp	r7, r4
	mov	r3, r4
	ldr	r4, [r4]
	bne	.L382
.L383:
	mov	r7, r5
	ldr	r3, [r7, #108]!
	cmp	r3, r7
	ldr	r4, [r3]
	movne	r9, #256
	movne	r8, #512
	beq	.L385
.L384:
	ldr	r2, [r3, #4]
	mov	r6, r3
	str	r2, [r4, #4]
	str	r4, [r2]
	str	r9, [r3]
	str	r8, [r3, #4]
	ldr	r0, [r6, #-8]!
	bl	kfree
	mov	r0, r6
	bl	kfree
	cmp	r7, r4
	mov	r3, r4
	ldr	r4, [r4]
	bne	.L384
.L385:
	ldr	r4, [r5, #88]
	ldr	r6, [r5, #92]
	ldr	r0, [r6]
	bl	kfree
	ldr	r3, [r4, #8]
	mov	r1, r6
	mov	r0, r4
	ldrd	r4, [sp]
	ldrd	r6, [sp, #8]
	ldrd	r8, [sp, #16]
	ldr	r3, [r3, #12]
	ldr	r10, [sp, #24]
	ldr	lr, [sp, #28]
	add	sp, sp, #32
	bx	r3	@ indirect register sibling call
	.fnend
	.size	rmnet_smd_free_buf, .-rmnet_smd_free_buf
	.align	2
	.syntax unified
	.arm
	.fpu softvfp
	.type	rmnet_mux_alloc_ctrl_pkt, %function
rmnet_mux_alloc_ctrl_pkt:
	.fnstart
	@ args = 0, pretend = 0, frame = 0
	@ frame_needed = 0, uses_anonymous_args = 0
	movw	r3, #:lower16:kmalloc_caches
	strd	r4, [sp, #-16]!
	.save {r4, r5, r6, lr}
	mov	r5, r0
	movt	r3, #:upper16:kmalloc_caches
	str	r6, [sp, #8]
	orr	r6, r1, #32768
	str	lr, [sp, #12]
	ldr	r3, [r3, #24]
	cmp	r3, #0
	beq	.L400
	mov	r0, r3
	mov	r1, r6
	bl	kmem_cache_alloc
	subs	r4, r0, #0
	beq	.L395
.L396:
	mov	r1, r6
	mov	r0, r5
	bl	__kmalloc
	cmp	r0, #0
	mov	r3, r0
	str	r0, [r4]
	strne	r5, [r4, #4]
	beq	.L406
.L395:
	mov	r0, r4
	ldrd	r4, [sp]
	ldr	r6, [sp, #8]
	add	sp, sp, #12
	ldr	pc, [sp], #4
.L400:
	mov	r4, #16
	b	.L396
.L406:
	mov	r0, r4
	mov	r4, r3
	bl	kfree
	b	.L395
	.fnend
	.size	rmnet_mux_alloc_ctrl_pkt, .-rmnet_mux_alloc_ctrl_pkt
	.align	2
	.syntax unified
	.arm
	.fpu softvfp
	.type	ghsuart_ctrl_receive, %function
ghsuart_ctrl_receive:
	.fnstart
	@ args = 0, pretend = 0, frame = 0
	@ frame_needed = 0, uses_anonymous_args = 0
	strd	r4, [sp, #-16]!
	.save {r4, r5, r6, lr}
	subs	r4, r0, #0
	moveq	r5, r4
	str	r6, [sp, #8]
	mov	r6, r1
	str	lr, [sp, #12]
	beq	.L408
	ldr	r3, [r4, #68]
	cmp	r3, #0
	moveq	r5, r3
	beq	.L408
	ldr	r0, [r4, #12]
	blx	r3
	ldr	r3, [r4, #100]
	mov	r5, r0
	add	r3, r3, #1
	str	r3, [r4, #100]
.L408:
	mov	r0, r6
	bl	kfree
	mov	r0, r5
	ldrd	r4, [sp]
	ldr	r6, [sp, #8]
	add	sp, sp, #12
	ldr	pc, [sp], #4
	.fnend
	.size	ghsuart_ctrl_receive, .-ghsuart_ctrl_receive
	.align	2
	.syntax unified
	.arm
	.fpu softvfp
	.type	mbim_alloc_ctrl_pkt, %function
mbim_alloc_ctrl_pkt:
	.fnstart
	@ args = 0, pretend = 0, frame = 0
	@ frame_needed = 0, uses_anonymous_args = 0
	movw	r3, #:lower16:kmalloc_caches
	strd	r4, [sp, #-16]!
	.save {r4, r5, r6, lr}
	mov	r5, r0
	movt	r3, #:upper16:kmalloc_caches
	str	r6, [sp, #8]
	mov	r6, r1
	str	lr, [sp, #12]
	ldr	r3, [r3, #24]
	cmp	r3, #0
	beq	.L417
	mov	r0, r3
	orr	r1, r1, #32768
	bl	kmem_cache_alloc
	subs	r4, r0, #0
	beq	.L421
.L413:
	mov	r1, r6
	mov	r0, r5
	bl	__kmalloc
	cmp	r0, #0
	str	r0, [r4]
	strne	r5, [r4, #4]
	beq	.L422
.L412:
	mov	r0, r4
	ldrd	r4, [sp]
	ldr	r6, [sp, #8]
	add	sp, sp, #12
	ldr	pc, [sp], #4
.L417:
	mov	r4, #16
	b	.L413
.L421:
	mvn	r4, #11
	b	.L412
.L422:
	mov	r0, r4
	mvn	r4, #11
	bl	kfree
	b	.L412
	.fnend
	.size	mbim_alloc_ctrl_pkt, .-mbim_alloc_ctrl_pkt
	.align	2
	.syntax unified
	.arm
	.fpu softvfp
	.type	audio_source_function_cleanup, %function
audio_source_function_cleanup:
	.fnstart
	@ args = 0, pretend = 0, frame = 0
	@ frame_needed = 0, uses_anonymous_args = 0
	@ link register save eliminated.
	ldr	r0, [r0, #4]
	b	kfree
	.fnend
	.size	audio_source_function_cleanup, .-audio_source_function_cleanup
	.align	2
	.syntax unified
	.arm
	.fpu softvfp
	.type	ncm_function_cleanup, %function
ncm_function_cleanup:
	.fnstart
	@ args = 0, pretend = 0, frame = 0
	@ frame_needed = 0, uses_anonymous_args = 0
	.save {r4, lr}
	str	r4, [sp, #-8]!
	mov	r4, r0
	str	lr, [sp, #4]
	ldr	r0, [r0, #4]
	bl	kfree
	mov	r3, #0
	str	r3, [r4, #4]
	ldr	r4, [sp]
	add	sp, sp, #4
	ldr	pc, [sp], #4
	.fnend
	.size	ncm_function_cleanup, .-ncm_function_cleanup
	.align	2
	.syntax unified
	.arm
	.fpu softvfp
	.type	diag_function_cleanup, %function
diag_function_cleanup:
	.fnstart
	@ args = 0, pretend = 0, frame = 0
	@ frame_needed = 0, uses_anonymous_args = 0
	strd	r4, [sp, #-32]!
	.save {r4, r5, r6, r7, r8, r9, r10, lr}
	movw	r5, #:lower16:.LANCHOR1
	movt	r5, #:upper16:.LANCHOR1
	strd	r6, [sp, #8]
	ldr	r4, [r5, #40]!
	strd	r8, [sp, #16]
	str	r10, [sp, #24]
	str	lr, [sp, #28]
	cmp	r4, r5
	ldr	r6, [r4]
	beq	.L426
	ldr	r8, .L432
	mov	r10, #256
	mov	r9, #512
	b	.L430
.L428:
	bl	_raw_spin_unlock_irqrestore
	cmp	r6, r5
	ldr	r3, [r6]
	beq	.L426
.L429:
	mov	r4, r6
	mov	r6, r3
.L430:
	mov	r0, r8
	bl	_raw_spin_lock_irqsave
	ldr	r3, [r4, #12]
	mov	r7, r0
	mov	r0, r8
	mov	r1, r7
	cmp	r3, #0
	bne	.L428
	ldrd	r2, [r4]
	sub	r0, r4, #4
	str	r3, [r2, #4]
	str	r2, [r3]
	str	r10, [r4]
	str	r9, [r4, #4]
	bl	kfree
	mov	r1, r7
	mov	r0, r8
	bl	_raw_spin_unlock_irqrestore
	cmp	r6, r5
	ldr	r3, [r6]
	bne	.L429
.L426:
	ldrd	r4, [sp]
	ldrd	r6, [sp, #8]
	ldrd	r8, [sp, #16]
	ldr	r10, [sp, #24]
	add	sp, sp, #28
	ldr	pc, [sp], #4
.L433:
	.align	2
.L432:
	.word	.LANCHOR0+204
	.fnend
	.size	diag_function_cleanup, .-diag_function_cleanup
	.align	2
	.syntax unified
	.arm
	.fpu softvfp
	.type	gps_function_cleanup, %function
gps_function_cleanup:
	.fnstart
	@ args = 0, pretend = 0, frame = 0
	@ frame_needed = 0, uses_anonymous_args = 0
	@ link register save eliminated.
	movw	r3, #:lower16:.LANCHOR0
	movt	r3, #:upper16:.LANCHOR0
	ldr	r0, [r3, #212]
	b	kfree
	.fnend
	.size	gps_function_cleanup, .-gps_function_cleanup
	.align	2
	.syntax unified
	.arm
	.fpu softvfp
	.type	frmnet_unbind, %function
frmnet_unbind:
	.fnstart
	@ args = 0, pretend = 0, frame = 0
	@ frame_needed = 0, uses_anonymous_args = 0
	strd	r4, [sp, #-16]!
	.save {r4, r5, r6, lr}
	mov	r4, r1
	str	r6, [sp, #8]
	str	lr, [sp, #12]
	ldr	r3, [r0, #24]
	ldr	r3, [r3]
	ldr	r3, [r3, #20]
	cmp	r3, #4
	bhi	.L439
	cmp	r3, #2
	bhi	.L440
.L437:
	ldr	r0, [r4, #8]
	bl	kfree
	ldr	r5, [r4, #128]
	ldr	r6, [r4, #132]
	ldr	r0, [r6]
	bl	kfree
	ldr	r3, [r5, #8]
	mov	r0, r5
	mov	r1, r6
	ldr	r3, [r3, #12]
	blx	r3
	ldr	r0, [r4]
	ldrd	r4, [sp]
	ldr	r6, [sp, #8]
	ldr	lr, [sp, #12]
	add	sp, sp, #16
	b	kfree
.L439:
	mov	r5, r0
	ldr	r0, [r1, #16]
	bl	kfree
	ldr	r3, [r5, #24]
	ldr	r3, [r3]
	ldr	r3, [r3, #20]
	cmp	r3, #2
	bls	.L437
.L440:
	ldr	r0, [r4, #12]
	bl	kfree
	b	.L437
	.fnend
	.size	frmnet_unbind, .-frmnet_unbind
	.align	2
	.syntax unified
	.arm
	.fpu softvfp
	.type	gps_unbind, %function
gps_unbind:
	.fnstart
	@ args = 0, pretend = 0, frame = 0
	@ frame_needed = 0, uses_anonymous_args = 0
	strd	r4, [sp, #-16]!
	.save {r4, r5, r6, lr}
	mov	r4, r1
	str	r6, [sp, #8]
	str	lr, [sp, #12]
	ldr	r3, [r0, #24]
	ldr	r3, [r3]
	ldr	r3, [r3, #20]
	cmp	r3, #4
	bhi	.L445
	cmp	r3, #2
	bhi	.L446
.L443:
	ldr	r0, [r4, #8]
	bl	kfree
	ldr	r5, [r4, #128]
	ldr	r6, [r4, #132]
	ldr	r0, [r6]
	bl	kfree
	ldr	r3, [r5, #8]
	mov	r0, r5
	mov	r1, r6
	ldr	r3, [r3, #12]
	blx	r3
	ldr	r0, [r4]
	ldrd	r4, [sp]
	ldr	r6, [sp, #8]
	ldr	lr, [sp, #12]
	add	sp, sp, #16
	b	kfree
.L445:
	mov	r5, r0
	ldr	r0, [r1, #16]
	bl	kfree
	ldr	r3, [r5, #24]
	ldr	r3, [r3]
	ldr	r3, [r3, #20]
	cmp	r3, #2
	bls	.L443
.L446:
	ldr	r0, [r4, #12]
	bl	kfree
	b	.L443
	.fnend
	.size	gps_unbind, .-gps_unbind
	.align	2
	.syntax unified
	.arm
	.fpu softvfp
	.type	gs_start_rx, %function
gs_start_rx:
	.fnstart
	@ args = 0, pretend = 0, frame = 0
	@ frame_needed = 0, uses_anonymous_args = 0
	strd	r4, [sp, #-36]!
	.save {r4, r5, r6, r7, r8, r9, r10, fp, lr}
	strd	r6, [sp, #8]
	strd	r8, [sp, #16]
	add	r8, r0, #32
	mov	r9, r0
	strd	r10, [sp, #24]
	str	lr, [sp, #32]
	ldr	r2, [r0, #4]
	.pad #4
	sub	sp, sp, #4
	ldr	r4, [r0, #32]
	ldr	r6, [r2, #84]
	cmp	r8, r4
	ldr	r2, [r0, #40]
	beq	.L449
	mov	fp, #256
	mov	r10, #512
	b	.L452
.L460:
	cmp	r2, #7
	bgt	.L449
	ldm	r4, {r1, r2}
	mov	r3, #4096
	str	r2, [r1, #4]
	str	r1, [r2]
	str	r3, [r4, #-32]
	str	fp, [r4]
	str	r10, [r4, #4]
	bl	_raw_spin_unlock
	ldr	ip, [r6, #8]
	mov	r2, #32
	mov	r1, r7
	mov	r0, r6
	ldr	r5, [ip, #16]
	blx	r5
	mov	r5, r0
	mov	r0, r9
	bl	_raw_spin_lock
	ldr	r2, [r9, #4]
	cmp	r2, #0
	beq	.L458
	cmp	r5, #0
	bne	.L459
	ldr	r4, [r9, #32]
	ldr	r2, [r9, #40]
	cmp	r8, r4
	add	r2, r2, #1
	str	r2, [r9, #40]
	beq	.L449
.L452:
	ldr	r1, [r9, #8]
	mov	r0, r9
	sub	r7, r4, #36
	cmp	r1, #0
	bne	.L460
.L449:
	mov	r0, r2
	add	sp, sp, #4
	@ sp needed
	ldrd	r4, [sp]
	ldrd	r6, [sp, #8]
	ldrd	r8, [sp, #16]
	ldrd	r10, [sp, #24]
	add	sp, sp, #32
	ldr	pc, [sp], #4
.L458:
	ldr	r0, [r4, #-36]
	bl	kfree
	ldr	r2, [r6, #8]
	mov	r1, r7
	mov	r0, r6
	ldr	r2, [r2, #12]
	blx	r2
	ldr	r2, [r9, #40]
	b	.L449
.L459:
	ldr	r2, [r9, #32]
	str	r4, [r2, #4]
	stm	r4, {r2, r8}
	ldr	r2, [r9, #40]
	str	r4, [r9, #32]
	b	.L449
	.fnend
	.size	gs_start_rx, .-gs_start_rx
	.align	2
	.syntax unified
	.arm
	.fpu softvfp
	.type	rmnet_function_cleanup, %function
rmnet_function_cleanup:
	.fnstart
	@ args = 0, pretend = 0, frame = 0
	@ frame_needed = 0, uses_anonymous_args = 0
	strd	r4, [sp, #-16]!
	.save {r4, r5, r6, lr}
	movw	r4, #:lower16:.LANCHOR0
	movt	r4, #:upper16:.LANCHOR0
	str	r6, [sp, #8]
	ldr	r3, [r4, #216]
	str	lr, [sp, #12]
	cmp	r3, #0
	beq	.L462
	add	r6, r4, #220
	mov	r5, #0
.L463:
	ldr	r0, [r6, #20]
	add	r5, r5, #1
	add	r6, r6, #24
	bl	kfree
	ldr	r3, [r4, #216]
	cmp	r3, r5
	bhi	.L463
.L462:
	mov	r3, #0
	ldr	r6, [sp, #8]
	str	r3, [r4, #216]
	str	r3, [r4, #292]
	str	r3, [r4, #296]
	str	r3, [r4, #300]
	str	r3, [r4, #304]
	str	r3, [r4, #308]
	str	r3, [r4, #312]
	str	r3, [r4, #316]
	str	r3, [r4, #320]
	ldrd	r4, [sp]
	add	sp, sp, #12
	ldr	pc, [sp], #4
	.fnend
	.size	rmnet_function_cleanup, .-rmnet_function_cleanup
	.section	.rodata.str1.4,"aMS",%progbits,1
	.align	2
.LC0:
	.ascii	"rmnet data rx enqueue err %d\012\000"
	.text
	.align	2
	.syntax unified
	.arm
	.fpu softvfp
	.type	rmnet_smd_start_rx, %function
rmnet_smd_start_rx:
	.fnstart
	@ args = 0, pretend = 0, frame = 8
	@ frame_needed = 0, uses_anonymous_args = 0
	strd	r4, [sp, #-36]!
	.save {r4, r5, r6, r7, r8, r9, r10, fp, lr}
	strd	r6, [sp, #8]
	add	r7, r0, #156
	mov	r6, r0
	strd	r8, [sp, #16]
	add	r8, r0, #140
	mov	r9, #512
	strd	r10, [sp, #24]
	mov	r10, #256
	str	lr, [sp, #32]
	ldr	r3, [r0, #76]
	.pad #12
	sub	sp, sp, #12
	mov	r0, r7
	str	r3, [sp, #4]
	bl	_raw_spin_lock_irqsave
	mov	r5, r0
	b	.L470
.L472:
	ldrd	r2, [r4]
	str	r3, [r2, #4]
	str	r2, [r3]
	str	r10, [r4]
	str	r9, [r4, #4]
	bl	_raw_spin_unlock_irqrestore
	ldr	r0, [r6, #80]
	mov	r2, #32
	sub	r1, r4, #36
	ldr	r3, [r0, #8]
	ldr	r3, [r3, #16]
	blx	r3
	mov	fp, r0
	mov	r0, r7
	bl	_raw_spin_lock_irqsave
	cmp	fp, #0
	mov	r5, r0
	bne	.L476
.L470:
	ldr	r4, [r6, #140]
	mov	r1, r5
	mov	r0, r7
	cmp	r8, r4
	bne	.L472
.L471:
	mov	r1, r5
	mov	r0, r7
	add	sp, sp, #12
	@ sp needed
	ldrd	r4, [sp]
	ldrd	r6, [sp, #8]
	ldrd	r8, [sp, #16]
	ldrd	r10, [sp, #24]
	ldr	lr, [sp, #32]
	add	sp, sp, #36
	b	_raw_spin_unlock_irqrestore
.L476:
	ldr	r3, [sp, #4]
	movw	r1, #:lower16:.LC0
	mov	r2, fp
	movt	r1, #:upper16:.LC0
	ldr	r0, [r3]
	add	r0, r0, #32
	bl	dev_err
	ldr	r3, [r6, #144]
	str	r4, [r6, #144]
	str	r8, [r4]
	str	r3, [r4, #4]
	str	r4, [r3]
	b	.L471
	.fnend
	.size	rmnet_smd_start_rx, .-rmnet_smd_start_rx
	.section	.rodata.str1.4
	.align	2
.LC1:
	.ascii	"rmnet notify ep error %d\012\000"
	.align	2
.LC2:
	.ascii	"rmnet notify ep enqueue error %d\012\000"
	.text
	.align	2
	.syntax unified
	.arm
	.fpu softvfp
	.type	rmnet_smd_notify_complete, %function
rmnet_smd_notify_complete:
	.fnstart
	@ args = 0, pretend = 0, frame = 0
	@ frame_needed = 0, uses_anonymous_args = 0
	strd	r4, [sp, #-24]!
	.save {r4, r5, r6, r7, r8, lr}
	strd	r6, [sp, #8]
	str	r8, [sp, #16]
	str	lr, [sp, #20]
	ldr	r6, [r1, #32]
	ldr	r2, [r1, #44]
	ldr	r7, [r6, #76]
	cmn	r2, #104
	beq	.L478
	cmp	r2, #0
	mov	r4, r1
	mov	r5, r0
	beq	.L479
	cmn	r2, #108
	beq	.L478
	ldr	r0, [r7]
	movw	r1, #:lower16:.LC1
	movt	r1, #:upper16:.LC1
	add	r0, r0, #32
	bl	dev_err
.L479:
	ldr	r3, [r6, #88]
	cmp	r3, r5
	beq	.L497
.L477:
	ldrd	r4, [sp]
	ldrd	r6, [sp, #8]
	ldr	r8, [sp, #16]
	add	sp, sp, #20
	ldr	pc, [sp], #4
.L478:
	mov	r3, #0
	str	r3, [r6, #164]
	b	.L477
.L497:
	add	r5, r6, #164
	.syntax divided
@ 99 "/run/media/tfonda/HDD/android/bacon/android_kernel_oppo_msm8974/arch/arm/include/asm/atomic.h" 1
	dmb
@ 0 "" 2
@ 111 "/run/media/tfonda/HDD/android/bacon/android_kernel_oppo_msm8974/arch/arm/include/asm/processor.h" 1
	pld	[r5]
@ 0 "" 2
@ 102 "/run/media/tfonda/HDD/android/bacon/android_kernel_oppo_msm8974/arch/arm/include/asm/atomic.h" 1
	@ atomic_sub_return
1:	ldrex	r3, [r5]
	sub	r3, r3, #1
	strex	r2, r3, [r5]
	teq	r2, #0
	bne	1b
@ 0 "" 2
@ 112 "/run/media/tfonda/HDD/android/bacon/android_kernel_oppo_msm8974/arch/arm/include/asm/atomic.h" 1
	dmb
@ 0 "" 2
	.arm
	.syntax unified
	cmp	r3, #0
	beq	.L477
	ldr	r0, [r6, #88]
	mov	r2, #32
	mov	r1, r4
	ldr	r3, [r0, #8]
	ldr	r3, [r3, #16]
	blx	r3
	subs	r2, r0, #0
	beq	.L477
	.syntax divided
@ 83 "/run/media/tfonda/HDD/android/bacon/android_kernel_oppo_msm8974/arch/arm/include/asm/atomic.h" 1
	@ atomic_sub
1:	ldrex	r3, [r5]
	sub	r3, r3, #1
	strex	r1, r3, [r5]
	teq	r1, #0
	bne	1b
@ 0 "" 2
	.arm
	.syntax unified
	ldr	r0, [r7]
	movw	r1, #:lower16:.LC2
	movt	r1, #:upper16:.LC2
	ldrd	r4, [sp]
	ldrd	r6, [sp, #8]
	ldr	r8, [sp, #16]
	add	r0, r0, #32
	ldr	lr, [sp, #20]
	add	sp, sp, #24
	b	dev_err
	.fnend
	.size	rmnet_smd_notify_complete, .-rmnet_smd_notify_complete
	.section	.rodata.str1.4
	.align	2
.LC3:
	.ascii	"rmnet notifyep error %d\012\000"
	.align	2
.LC4:
	.ascii	"rmnet notify ep enq error %d\012\000"
	.text
	.align	2
	.syntax unified
	.arm
	.fpu softvfp
	.type	rmnet_sdio_notify_complete, %function
rmnet_sdio_notify_complete:
	.fnstart
	@ args = 0, pretend = 0, frame = 0
	@ frame_needed = 0, uses_anonymous_args = 0
	strd	r4, [sp, #-24]!
	.save {r4, r5, r6, r7, r8, lr}
	strd	r6, [sp, #8]
	str	r8, [sp, #16]
	str	lr, [sp, #20]
	ldr	r4, [r1, #32]
	ldr	r2, [r1, #44]
	ldr	r7, [r4, #76]
	cmn	r2, #104
	beq	.L499
	cmp	r2, #0
	mov	r5, r1
	beq	.L500
	cmn	r2, #108
	beq	.L499
	ldr	r0, [r7]
	movw	r1, #:lower16:.LC3
	movt	r1, #:upper16:.LC3
	add	r0, r0, #32
	bl	dev_err
.L500:
	ldr	r3, [r4, #312]
	tst	r3, #2
	beq	.L498
	add	r6, r4, #188
	.syntax divided
@ 99 "/run/media/tfonda/HDD/android/bacon/android_kernel_oppo_msm8974/arch/arm/include/asm/atomic.h" 1
	dmb
@ 0 "" 2
@ 111 "/run/media/tfonda/HDD/android/bacon/android_kernel_oppo_msm8974/arch/arm/include/asm/processor.h" 1
	pld	[r6]
@ 0 "" 2
@ 102 "/run/media/tfonda/HDD/android/bacon/android_kernel_oppo_msm8974/arch/arm/include/asm/atomic.h" 1
	@ atomic_sub_return
1:	ldrex	r3, [r6]
	sub	r3, r3, #1
	strex	r2, r3, [r6]
	teq	r2, #0
	bne	1b
@ 0 "" 2
@ 112 "/run/media/tfonda/HDD/android/bacon/android_kernel_oppo_msm8974/arch/arm/include/asm/atomic.h" 1
	dmb
@ 0 "" 2
	.arm
	.syntax unified
	cmp	r3, #0
	beq	.L498
	ldr	r0, [r4, #88]
	mov	r2, #32
	mov	r1, r5
	ldr	r3, [r0, #8]
	ldr	r3, [r3, #16]
	blx	r3
	subs	r2, r0, #0
	bne	.L518
.L498:
	ldrd	r4, [sp]
	ldrd	r6, [sp, #8]
	ldr	r8, [sp, #16]
	add	sp, sp, #20
	ldr	pc, [sp], #4
.L499:
	mov	r3, #0
	str	r3, [r4, #188]
	b	.L498
.L518:
	.syntax divided
@ 83 "/run/media/tfonda/HDD/android/bacon/android_kernel_oppo_msm8974/arch/arm/include/asm/atomic.h" 1
	@ atomic_sub
1:	ldrex	r3, [r6]
	sub	r3, r3, #1
	strex	r1, r3, [r6]
	teq	r1, #0
	bne	1b
@ 0 "" 2
	.arm
	.syntax unified
	ldr	r0, [r7]
	movw	r1, #:lower16:.LC4
	movt	r1, #:upper16:.LC4
	ldrd	r4, [sp]
	ldrd	r6, [sp, #8]
	ldr	r8, [sp, #16]
	add	r0, r0, #32
	ldr	lr, [sp, #20]
	add	sp, sp, #24
	b	dev_err
	.fnend
	.size	rmnet_sdio_notify_complete, .-rmnet_sdio_notify_complete
	.section	.rodata.str1.4
	.align	2
.LC5:
	.ascii	"rmnet control SDIO write failed\012\000"
	.text
	.align	2
	.syntax unified
	.arm
	.fpu softvfp
	.type	rmnet_sdio_control_rx_work, %function
rmnet_sdio_control_rx_work:
	.fnstart
	@ args = 0, pretend = 0, frame = 0
	@ frame_needed = 0, uses_anonymous_args = 0
	strd	r4, [sp, #-36]!
	.save {r4, r5, r6, r7, r8, r9, r10, fp, lr}
	mov	r5, r0
	strd	r6, [sp, #8]
	sub	r6, r0, #32
	strd	r8, [sp, #16]
	mov	r9, #512
	sub	r8, r0, #112
	strd	r10, [sp, #24]
	mov	r10, #256
	str	lr, [sp, #32]
	.pad #4
	sub	sp, sp, #4
	ldr	fp, [r0, #-136]
	b	.L522
.L520:
	ldrd	r2, [r4]
	str	r3, [r2, #4]
	str	r2, [r3]
	str	r10, [r4]
	str	r9, [r4, #4]
	ldr	r3, [r5, #-104]
	sub	r3, r3, #1
	str	r3, [r5, #-104]
	bl	_raw_spin_unlock_irqrestore
	ldr	r3, [r4, #-4]
	cmn	r3, #19
	bne	.L524
	ldr	r3, [r5, #148]
	add	r3, r3, #1
	str	r3, [r5, #148]
	ldr	r0, [r4, #-8]
	bl	kfree
	mov	r0, r7
	bl	kfree
.L522:
	mov	r0, r6
	bl	_raw_spin_lock_irqsave
	ldr	r4, [r5, #-112]
	mov	r1, r0
	mov	r0, r6
	cmp	r4, r8
	sub	r7, r4, #8
	bne	.L520
	add	sp, sp, #4
	@ sp needed
	ldrd	r4, [sp]
	ldrd	r6, [sp, #8]
	ldrd	r8, [sp, #16]
	ldrd	r10, [sp, #24]
	ldr	lr, [sp, #32]
	add	sp, sp, #36
	b	_raw_spin_unlock_irqrestore
.L524:
	ldr	r0, [fp]
	movw	r1, #:lower16:.LC5
	movt	r1, #:upper16:.LC5
	add	r0, r0, #32
	add	sp, sp, #4
	@ sp needed
	ldrd	r4, [sp]
	ldrd	r6, [sp, #8]
	ldrd	r8, [sp, #16]
	ldrd	r10, [sp, #24]
	ldr	lr, [sp, #32]
	add	sp, sp, #36
	b	dev_err
	.fnend
	.size	rmnet_sdio_control_rx_work, .-rmnet_sdio_control_rx_work
	.section	.rodata.str1.4
	.align	2
.LC6:
	.ascii	"gser response on ttyGS%d, err %d\012\000"
	.text
	.align	2
	.syntax unified
	.arm
	.fpu softvfp
	.type	gser_setup, %function
gser_setup:
	.fnstart
	@ args = 0, pretend = 0, frame = 0
	@ frame_needed = 0, uses_anonymous_args = 0
	strd	r4, [sp, #-24]!
	.save {r4, r5, r6, r7, r8, lr}
	movw	ip, #8482
	mov	r4, r0
	strd	r6, [sp, #8]
	str	r8, [sp, #16]
	str	lr, [sp, #20]
	ldrh	r3, [r1]	@ unaligned
	ldr	lr, [r0, #20]
	ldrh	r2, [r1, #6]	@ unaligned
	rev16	r3, r3
	uxth	r3, r3
	ldr	r6, [lr, #24]
	cmp	r3, ip
	ldr	r5, [r6, #4]
	beq	.L526
	movw	r1, #41249
	cmp	r3, r1
	beq	.L527
	movw	r1, #8480
	cmp	r3, r1
	beq	.L534
.L531:
	mvn	r5, #94
.L525:
	mov	r0, r5
	ldrd	r4, [sp]
	ldrd	r6, [sp, #8]
	ldr	r8, [sp, #16]
	add	sp, sp, #20
	ldr	pc, [sp], #4
.L526:
	ldr	r8, [r0, #132]
	ldrh	r2, [r1, #2]	@ unaligned
	cmp	r8, #0
	moveq	r7, r8
	strh	r2, [r0, #168]	@ movhi
	uxth	r2, r2
	beq	.L529
	ldrb	r1, [r0, #137]	@ zero_extendqisi2
	movw	r3, #:lower16:.LANCHOR0
	mov	r7, #0
	movt	r3, #:upper16:.LANCHOR0
	add	r1, r1, r1, lsl #1
	add	r3, r3, r1, lsl #2
	ldrb	r1, [r3, #332]	@ zero_extendqisi2
	blx	r8
.L529:
	ldrb	r3, [r5, #26]	@ zero_extendqisi2
	str	r7, [r5, #4]
	mov	r1, r5
	mov	r2, #32
	bfc	r3, #1, #1
	strb	r3, [r5, #26]
	ldr	r3, [r6]
	ldr	r0, [r3, #4]
	ldr	r3, [r0, #8]
	ldr	r3, [r3, #16]
	blx	r3
	subs	r5, r0, #0
	bge	.L525
	ldr	r0, [r6]
	movw	r1, #:lower16:.LC6
	mov	r3, r5
	ldrb	r2, [r4, #137]	@ zero_extendqisi2
	movt	r1, #:upper16:.LC6
	add	r0, r0, #32
	bl	dev_err
	b	.L525
.L534:
	cmp	r2, #7
	bne	.L531
	ldr	r1, [r6]
	mov	r7, r2
	movw	r3, #:lower16:gser_complete_set_line_coding
	movt	r3, #:upper16:gser_complete_set_line_coding
	ldr	r2, [r1, #4]
	str	r0, [r2]
	str	r3, [r5, #28]
	b	.L529
.L527:
	cmp	r2, #7
	add	r1, r0, #160
	ldr	r0, [r5]
	movcc	r7, r2
	movcs	r7, #7
	mov	r2, r7
	bl	memcpy
	b	.L529
	.fnend
	.size	gser_setup, .-gser_setup
	.section	.rodata.str1.4
	.align	2
.LC7:
	.ascii	"acm response on ttyGS%d, err %d\012\000"
	.text
	.align	2
	.syntax unified
	.arm
	.fpu softvfp
	.type	acm_setup, %function
acm_setup:
	.fnstart
	@ args = 0, pretend = 0, frame = 0
	@ frame_needed = 0, uses_anonymous_args = 0
	strd	r4, [sp, #-24]!
	.save {r4, r5, r6, r7, r8, lr}
	movw	ip, #8482
	mov	r4, r0
	strd	r6, [sp, #8]
	str	r8, [sp, #16]
	str	lr, [sp, #20]
	ldrh	r3, [r1]	@ unaligned
	ldr	lr, [r0, #20]
	ldrh	r2, [r1, #6]	@ unaligned
	rev16	r3, r3
	uxth	r3, r3
	ldr	r6, [lr, #24]
	cmp	r3, ip
	ldr	r5, [r6, #4]
	beq	.L536
	movw	r1, #41249
	cmp	r3, r1
	beq	.L537
	movw	r1, #8480
	cmp	r3, r1
	beq	.L544
.L541:
	mvn	r5, #94
.L535:
	mov	r0, r5
	ldrd	r4, [sp]
	ldrd	r6, [sp, #8]
	ldr	r8, [sp, #16]
	add	sp, sp, #20
	ldr	pc, [sp], #4
.L536:
	ldr	r8, [r0, #132]
	ldrh	r2, [r1, #2]	@ unaligned
	cmp	r8, #0
	moveq	r7, r8
	strh	r2, [r0, #168]	@ movhi
	uxth	r2, r2
	beq	.L539
	ldrb	r1, [r0, #138]	@ zero_extendqisi2
	movw	r3, #:lower16:.LANCHOR0
	mov	r7, #0
	movt	r3, #:upper16:.LANCHOR0
	add	r1, r1, r1, lsl #1
	add	r3, r3, r1, lsl #2
	ldrb	r1, [r3, #368]	@ zero_extendqisi2
	blx	r8
.L539:
	ldrb	r3, [r5, #26]	@ zero_extendqisi2
	str	r7, [r5, #4]
	mov	r1, r5
	mov	r2, #32
	bfc	r3, #1, #1
	strb	r3, [r5, #26]
	ldr	r3, [r6]
	ldr	r0, [r3, #4]
	ldr	r3, [r0, #8]
	ldr	r3, [r3, #16]
	blx	r3
	subs	r5, r0, #0
	bge	.L535
	ldr	r0, [r6]
	movw	r1, #:lower16:.LC7
	mov	r3, r5
	ldrb	r2, [r4, #138]	@ zero_extendqisi2
	movt	r1, #:upper16:.LC7
	add	r0, r0, #32
	bl	dev_err
	b	.L535
.L544:
	cmp	r2, #7
	bne	.L541
	ldr	r1, [r6]
	mov	r7, r2
	movw	r3, #:lower16:acm_complete_set_line_coding
	movt	r3, #:upper16:acm_complete_set_line_coding
	ldr	r2, [r1, #4]
	str	r0, [r2]
	str	r3, [r5, #28]
	b	.L539
.L537:
	cmp	r2, #7
	add	r1, r0, #160
	ldr	r0, [r5]
	movcc	r7, r2
	movcs	r7, #7
	mov	r2, r7
	bl	memcpy
	b	.L539
	.fnend
	.size	acm_setup, .-acm_setup
	.section	.rodata.str1.4
	.align	2
.LC8:
	.ascii	"ecm req %02x.%02x response err %d\012\000"
	.text
	.align	2
	.syntax unified
	.arm
	.fpu softvfp
	.type	ecm_setup, %function
ecm_setup:
	.fnstart
	@ args = 0, pretend = 0, frame = 0
	@ frame_needed = 0, uses_anonymous_args = 0
	strd	r4, [sp, #-16]!
	.save {r4, r5, r6, lr}
	mov	r4, r1
	movw	r1, #17185
	str	r6, [sp, #8]
	str	lr, [sp, #12]
	ldr	ip, [r0, #20]
	.pad #8
	sub	sp, sp, #8
	ldrh	r3, [r4]	@ unaligned
	ldrh	r2, [r4, #6]	@ unaligned
	ldrh	lr, [r4, #4]	@ unaligned
	ldr	r6, [ip, #24]
	cmp	r2, #0
	cmpeq	r3, r1
	ldrh	r2, [r4, #2]	@ unaligned
	movne	r3, #1
	moveq	r3, #0
	ldr	r1, [r6, #4]
	bne	.L548
	ldrb	ip, [r0, #140]	@ zero_extendqisi2
	cmp	ip, lr
	bne	.L548
	strh	r2, [r0, #90]	@ movhi
	ldrb	r0, [r1, #26]	@ zero_extendqisi2
	mov	r2, #32
	str	r3, [r1, #4]
	bfi	r0, r3, #1, #1
	strb	r0, [r1, #26]
	ldr	r3, [r6]
	ldr	r0, [r3, #4]
	ldr	r3, [r0, #8]
	ldr	r3, [r3, #16]
	blx	r3
	subs	r5, r0, #0
	blt	.L550
.L545:
	mov	r0, r5
	add	sp, sp, #8
	@ sp needed
	ldrd	r4, [sp]
	ldr	r6, [sp, #8]
	add	sp, sp, #12
	ldr	pc, [sp], #4
.L550:
	ldr	r0, [r6]
	movw	r1, #:lower16:.LC8
	str	r5, [sp]
	movt	r1, #:upper16:.LC8
	ldrb	r3, [r4, #1]	@ zero_extendqisi2
	ldrb	r2, [r4]	@ zero_extendqisi2
	add	r0, r0, #32
	bl	dev_err
	b	.L545
.L548:
	mvn	r5, #94
	b	.L545
	.fnend
	.size	ecm_setup, .-ecm_setup
	.section	.rodata.str1.4
	.align	2
.LC9:
	.ascii	"ncm req %02x.%02x response err %d\012\000"
	.text
	.align	2
	.syntax unified
	.arm
	.fpu softvfp
	.type	ncm_setup, %function
ncm_setup:
	.fnstart
	@ args = 0, pretend = 0, frame = 0
	@ frame_needed = 0, uses_anonymous_args = 0
	strd	r4, [sp, #-20]!
	.save {r4, r5, r6, r7, lr}
	movw	r4, #41353
	mov	r5, r1
	strd	r6, [sp, #8]
	str	lr, [sp, #16]
	ldrh	r3, [r1]	@ unaligned
	.pad #12
	sub	sp, sp, #12
	ldr	r2, [r0, #20]
	ldrh	r1, [r1, #2]	@ unaligned
	ldrh	lr, [r5, #4]	@ unaligned
	rev16	r3, r3
	ldrh	ip, [r5, #6]	@ unaligned
	uxth	r3, r3
	ldr	r6, [r2, #24]
	cmp	r3, r4
	ldr	r4, [r6, #4]
	bhi	.L587
	movw	r7, #41343
	uxth	r2, r1
	cmp	r3, r7
	bgt	.L553
	movw	r7, #8582
	cmp	r3, r7
	beq	.L554
	ble	.L589
	movw	r1, #8586
	cmp	r3, r1
	bne	.L587
	cmp	ip, #0
	bne	.L587
	ldrb	r3, [r0, #140]	@ zero_extendqisi2
	cmp	r3, lr
	bne	.L587
	cmp	r2, #0
	beq	.L567
	cmp	r2, #1
	bne	.L587
	mov	ip, #16777216
	strb	r2, [r0, #172]
.L569:
	ldr	r1, [r0, #168]
	mov	r7, #0
	ldr	r2, [r1, #4]
	bic	r2, r2, #16777216
	str	r2, [r1, #4]
	ldr	r2, [r0, #168]
	ldr	r3, [r2, #4]
	orr	r3, r3, ip
	str	r3, [r2, #4]
	b	.L564
.L589:
	movw	r7, #8515
	cmp	r3, r7
	beq	.L556
	movw	r1, #8580
	cmp	r3, r1
	bne	.L587
	cmp	ip, #0
	beq	.L590
.L587:
	mvn	r4, #94
.L551:
	mov	r0, r4
	add	sp, sp, #12
	@ sp needed
	ldrd	r4, [sp]
	ldrd	r6, [sp, #8]
	add	sp, sp, #16
	ldr	pc, [sp], #4
.L553:
	sub	r3, r3, #41216
	sub	r3, r3, #128
	cmp	r3, #9
	ldrls	pc, [pc, r3, asl #2]
	b	.L587
.L559:
	.word	.L562
	.word	.L587
	.word	.L587
	.word	.L561
	.word	.L587
	.word	.L560
	.word	.L587
	.word	.L587
	.word	.L587
	.word	.L558
.L558:
	subs	r2, r2, #0
	movne	r2, #1
	cmp	ip, #1
	orrls	r2, r2, #1
	cmp	r2, #0
	bne	.L587
	ldrb	r3, [r0, #140]	@ zero_extendqisi2
	cmp	r3, lr
	bne	.L587
	ldrb	r1, [r0, #172]	@ zero_extendqisi2
	mov	r7, #2
	ldr	r3, [r4]
	strb	r1, [r3]
	strb	r2, [r3, #1]
.L564:
	ldrb	r3, [r4, #26]	@ zero_extendqisi2
	str	r7, [r4, #4]
	mov	r1, r4
	mov	r2, #32
	bfc	r3, #1, #1
	strb	r3, [r4, #26]
	ldr	r3, [r6]
	ldr	r0, [r3, #4]
	ldr	r3, [r0, #8]
	ldr	r3, [r3, #16]
	blx	r3
	subs	r4, r0, #0
	bge	.L551
	ldr	r0, [r6]
	movw	r1, #:lower16:.LC9
	str	r4, [sp]
	movt	r1, #:upper16:.LC9
	ldrb	r3, [r5, #1]	@ zero_extendqisi2
	ldrb	r2, [r5]	@ zero_extendqisi2
	add	r0, r0, #32
	bl	dev_err
	b	.L551
.L562:
	subs	r2, r2, #0
	movne	r2, #1
	cmp	ip, #0
	moveq	r2, #1
	cmp	r2, #0
	bne	.L587
	ldrb	r3, [r0, #140]	@ zero_extendqisi2
	cmp	r3, lr
	bne	.L587
	cmp	ip, #28
	ldr	r1, .L591
	movcc	r7, ip
	movcs	r7, #28
	ldr	r0, [r4]
	mov	r2, r7
	bl	memcpy
	b	.L564
.L561:
	subs	r2, r2, #0
	movne	r2, #1
	cmp	ip, #1
	orrls	r2, r2, #1
	cmp	r2, #0
	bne	.L587
	ldrb	r3, [r0, #140]	@ zero_extendqisi2
	cmp	r3, lr
	bne	.L587
	ldr	ip, .L591+4
	mov	r7, #2
	ldr	r3, [r0, #168]
	ldr	r1, [r4]
	subs	r3, r3, ip
	movne	r3, #1
	strb	r3, [r1]
	strb	r2, [r1, #1]
	b	.L564
.L560:
	subs	r2, r2, #0
	movne	r2, #1
	cmp	ip, #3
	orrls	r2, r2, #1
	cmp	r2, #0
	bne	.L587
	ldrb	r3, [r0, #140]	@ zero_extendqisi2
	cmp	r3, lr
	bne	.L587
	ldr	r2, [r0, #104]
	mov	r7, #4
	ldr	r3, [r4]
	lsr	r1, r2, #16
	ubfx	r0, r2, #8, #8
	strb	r2, [r3]
	lsr	r2, r1, #8
	strb	r0, [r3, #1]
	strb	r1, [r3, #2]
	strb	r2, [r3, #3]
	b	.L564
.L590:
	ldrb	r3, [r0, #140]	@ zero_extendqisi2
	cmp	r3, lr
	bne	.L587
	cmp	r2, #0
	beq	.L565
	cmp	r2, #1
	bne	.L587
	ldr	r3, .L591+8
	mov	r7, #0
	str	r3, [r0, #168]
	b	.L564
.L556:
	cmp	ip, #0
	bne	.L587
	ldrb	r3, [r0, #140]	@ zero_extendqisi2
	cmp	r3, lr
	bne	.L587
	mov	r7, ip
	strh	r1, [r0, #90]	@ movhi
	b	.L564
.L554:
	cmp	r2, #0
	cmpeq	ip, #4
	bne	.L587
	ldrb	r3, [r0, #140]	@ zero_extendqisi2
	cmp	r3, lr
	bne	.L587
	movw	r3, #:lower16:ncm_ep0out_complete
	mov	r7, #4
	str	r0, [r4, #32]
	movt	r3, #:upper16:ncm_ep0out_complete
	str	r3, [r4, #28]
	b	.L564
.L567:
	mov	ip, r2
	strb	r2, [r0, #172]
	b	.L569
.L565:
	ldr	r3, .L591+4
	mov	r7, r2
	str	r3, [r0, #168]
	b	.L564
.L592:
	.align	2
.L591:
	.word	.LANCHOR1+12
	.word	.LANCHOR1+48
	.word	.LANCHOR1+92
	.fnend
	.size	ncm_setup, .-ncm_setup
	.section	.rodata.str1.4
	.align	2
.LC10:
	.ascii	"rmnet_mux notifyep error %d\012\000"
	.text
	.align	2
	.syntax unified
	.arm
	.fpu softvfp
	.type	rmnet_mux_notify_complete, %function
rmnet_mux_notify_complete:
	.fnstart
	@ args = 0, pretend = 0, frame = 0
	@ frame_needed = 0, uses_anonymous_args = 0
	strd	r4, [sp, #-24]!
	.save {r4, r5, r6, r7, r8, lr}
	strd	r6, [sp, #8]
	str	r8, [sp, #16]
	str	lr, [sp, #20]
	ldr	r4, [r1, #32]
	ldr	r2, [r1, #44]
	ldr	r7, [r4, #76]
	cmn	r2, #104
	beq	.L594
	cmp	r2, #0
	mov	r5, r1
	beq	.L595
	cmn	r2, #108
	beq	.L594
	ldr	r0, [r7]
	movw	r1, #:lower16:.LC10
	movt	r1, #:upper16:.LC10
	add	r0, r0, #32
	bl	dev_err
.L595:
	add	r6, r4, #364
	.syntax divided
@ 99 "/run/media/tfonda/HDD/android/bacon/android_kernel_oppo_msm8974/arch/arm/include/asm/atomic.h" 1
	dmb
@ 0 "" 2
@ 111 "/run/media/tfonda/HDD/android/bacon/android_kernel_oppo_msm8974/arch/arm/include/asm/processor.h" 1
	pld	[r6]
@ 0 "" 2
@ 102 "/run/media/tfonda/HDD/android/bacon/android_kernel_oppo_msm8974/arch/arm/include/asm/atomic.h" 1
	@ atomic_sub_return
1:	ldrex	r3, [r6]
	sub	r3, r3, #1
	strex	r2, r3, [r6]
	teq	r2, #0
	bne	1b
@ 0 "" 2
@ 112 "/run/media/tfonda/HDD/android/bacon/android_kernel_oppo_msm8974/arch/arm/include/asm/atomic.h" 1
	dmb
@ 0 "" 2
	.arm
	.syntax unified
	cmp	r3, #0
	bne	.L610
.L593:
	ldrd	r4, [sp]
	ldrd	r6, [sp, #8]
	ldr	r8, [sp, #16]
	add	sp, sp, #20
	ldr	pc, [sp], #4
.L610:
	ldr	r0, [r4, #88]
	mov	r2, #32
	mov	r1, r5
	ldr	r3, [r0, #8]
	ldr	r3, [r3, #16]
	blx	r3
	subs	r2, r0, #0
	beq	.L593
	.syntax divided
@ 83 "/run/media/tfonda/HDD/android/bacon/android_kernel_oppo_msm8974/arch/arm/include/asm/atomic.h" 1
	@ atomic_sub
1:	ldrex	r3, [r6]
	sub	r3, r3, #1
	strex	r1, r3, [r6]
	teq	r1, #0
	bne	1b
@ 0 "" 2
	.arm
	.syntax unified
	ldr	r0, [r7]
	movw	r1, #:lower16:.LC4
	movt	r1, #:upper16:.LC4
	ldrd	r4, [sp]
	ldrd	r6, [sp, #8]
	ldr	r8, [sp, #16]
	add	r0, r0, #32
	ldr	lr, [sp, #20]
	add	sp, sp, #24
	b	dev_err
.L594:
	mov	r3, #0
	str	r3, [r4, #364]
	b	.L593
	.fnend
	.size	rmnet_mux_notify_complete, .-rmnet_mux_notify_complete
	.section	.rodata.str1.4
	.align	2
.LC11:
	.ascii	"rmnet_mux ep0 enqueue err %d\012\000"
	.text
	.align	2
	.syntax unified
	.arm
	.fpu softvfp
	.type	rmnet_mux_setup, %function
rmnet_mux_setup:
	.fnstart
	@ args = 0, pretend = 0, frame = 0
	@ frame_needed = 0, uses_anonymous_args = 0
	strd	r4, [sp, #-32]!
	.save {r4, r5, r6, r7, r8, r9, r10, lr}
	strd	r6, [sp, #8]
	strd	r8, [sp, #16]
	str	r10, [sp, #24]
	str	lr, [sp, #28]
	ldr	r2, [r0, #20]
	ldr	r3, [r0, #360]
	ldrh	r7, [r1, #2]	@ unaligned
	ldrh	r8, [r1, #6]	@ unaligned
	ldr	r6, [r2, #24]
	cmp	r3, #0
	ldr	r5, [r6, #4]
	beq	.L618
	ldrh	r3, [r1]	@ unaligned
	movw	r2, #8482
	mov	r4, r0
	rev16	r3, r3
	uxth	r3, r3
	cmp	r3, r2
	beq	.L613
	movw	r2, #41217
	cmp	r3, r2
	beq	.L614
	cmp	r3, #8448
	beq	.L622
.L620:
	mvn	r4, #94
.L611:
	mov	r0, r4
	ldrd	r4, [sp]
	ldrd	r6, [sp, #8]
	ldrd	r8, [sp, #16]
	ldr	r10, [sp, #24]
	add	sp, sp, #28
	ldr	pc, [sp], #4
.L613:
	ldr	r3, [r0, #340]
	subs	r8, r8, #0
	movne	r8, #1
	ands	r7, r7, #1
	movne	r7, #0
	orrne	r3, r3, #2
	biceq	r3, r3, #2
	str	r3, [r0, #340]
.L615:
	ldrb	r3, [r5, #26]	@ zero_extendqisi2
	str	r7, [r5, #4]
	mov	r1, r5
	mov	r2, #32
	bfi	r3, r8, #1, #1
	strb	r3, [r5, #26]
	ldr	r3, [r6]
	ldr	r0, [r3, #4]
	ldr	r3, [r0, #8]
	ldr	r3, [r3, #16]
	blx	r3
	subs	r4, r0, #0
	bge	.L611
	ldr	r0, [r6]
	movw	r1, #:lower16:.LC11
	mov	r2, r4
	movt	r1, #:upper16:.LC11
	add	r0, r0, #32
	bl	dev_err
	b	.L611
.L622:
	movw	r3, #:lower16:rmnet_mux_command_complete
	mov	r7, r8
	str	r0, [r5, #32]
	movt	r3, #:upper16:rmnet_mux_command_complete
	mov	r8, #0
	str	r3, [r5, #28]
	b	.L615
.L614:
	cmp	r7, #0
	bne	.L620
	add	r7, r0, #356
	mov	r0, r7
	bl	_raw_spin_lock
	mov	r3, r4
	ldr	r9, [r3, #328]!
	cmp	r9, r3
	beq	.L623
	ldrd	r2, [r9]
	mov	ip, #256
	mov	r1, #512
	mov	r0, r7
	mov	r10, r9
	str	r3, [r2, #4]
	str	r2, [r3]
	str	ip, [r9]
	str	r1, [r9, #4]
	ldr	r3, [r4, #336]
	sub	r3, r3, #1
	str	r3, [r4, #336]
	bl	_raw_spin_unlock
	ldmdb	r9, {r1, r7}
	ldr	r0, [r5]
	cmp	r8, r7
	movcc	r7, r8
	mov	r2, r7
	bl	memcpy
	movw	r3, #:lower16:rmnet_mux_response_complete
	str	r4, [r5, #32]
	movt	r3, #:upper16:rmnet_mux_response_complete
	str	r3, [r5, #28]
	ldr	r0, [r10, #-8]!
	bl	kfree
	mov	r0, r10
	bl	kfree
	ldr	r3, [r4, #404]
	cmp	r7, r8
	movge	r8, #0
	movlt	r8, #1
	add	r3, r3, #1
	str	r3, [r4, #404]
	b	.L615
.L618:
	mvn	r4, #106
	b	.L611
.L623:
	mov	r0, r7
	mvn	r4, #94
	bl	_raw_spin_unlock
	b	.L611
	.fnend
	.size	rmnet_mux_setup, .-rmnet_mux_setup
	.align	2
	.syntax unified
	.arm
	.fpu softvfp
	.type	rmnet_mux_smd_start_rx, %function
rmnet_mux_smd_start_rx:
	.fnstart
	@ args = 0, pretend = 0, frame = 8
	@ frame_needed = 0, uses_anonymous_args = 0
	strd	r4, [sp, #-36]!
	.save {r4, r5, r6, r7, r8, r9, r10, fp, lr}
	strd	r6, [sp, #8]
	add	r7, r0, #356
	mov	r6, r0
	strd	r8, [sp, #16]
	add	r8, r0, #104
	mov	r9, #512
	strd	r10, [sp, #24]
	mov	r10, #256
	str	lr, [sp, #32]
	ldr	r3, [r0, #76]
	.pad #12
	sub	sp, sp, #12
	mov	r0, r7
	str	r3, [sp, #4]
	bl	_raw_spin_lock_irqsave
	mov	r5, r0
	b	.L625
.L627:
	ldrd	r2, [r4]
	str	r3, [r2, #4]
	str	r2, [r3]
	str	r10, [r4]
	str	r9, [r4, #4]
	bl	_raw_spin_unlock_irqrestore
	ldr	r0, [r6, #80]
	mov	r2, #32
	sub	r1, r4, #36
	ldr	r3, [r0, #8]
	ldr	r3, [r3, #16]
	blx	r3
	mov	fp, r0
	mov	r0, r7
	bl	_raw_spin_lock_irqsave
	cmp	fp, #0
	mov	r5, r0
	bne	.L631
.L625:
	ldr	r4, [r6, #104]
	mov	r1, r5
	mov	r0, r7
	cmp	r8, r4
	bne	.L627
.L626:
	mov	r1, r5
	mov	r0, r7
	add	sp, sp, #12
	@ sp needed
	ldrd	r4, [sp]
	ldrd	r6, [sp, #8]
	ldrd	r8, [sp, #16]
	ldrd	r10, [sp, #24]
	ldr	lr, [sp, #32]
	add	sp, sp, #36
	b	_raw_spin_unlock_irqrestore
.L631:
	ldr	r3, [sp, #4]
	movw	r1, #:lower16:.LC0
	mov	r2, fp
	movt	r1, #:upper16:.LC0
	ldr	r0, [r3]
	add	r0, r0, #32
	bl	dev_err
	ldr	r3, [r6, #108]
	str	r4, [r6, #108]
	str	r8, [r4]
	str	r3, [r4, #4]
	str	r4, [r3]
	b	.L626
	.fnend
	.size	rmnet_mux_smd_start_rx, .-rmnet_mux_smd_start_rx
	.align	2
	.syntax unified
	.arm
	.fpu softvfp
	.type	composite_suspend, %function
composite_suspend:
	.fnstart
	@ args = 0, pretend = 0, frame = 0
	@ frame_needed = 0, uses_anonymous_args = 0
	strd	r4, [sp, #-16]!
	.save {r4, r5, r6, lr}
	mov	r5, r0
	add	r0, r0, #32
	str	r6, [sp, #8]
	str	lr, [sp, #12]
	bl	dev_get_drvdata
	ldr	r3, [r0, #12]
	mov	r6, r0
	cmp	r3, #0
	beq	.L636
	ldr	r4, [r3, #36]!
	cmp	r3, r4
	sub	r4, r4, #64
	beq	.L636
.L639:
	ldr	r2, [r4, #48]
	mov	r0, r4
	cmp	r2, #0
	beq	.L637
	blx	r2
	ldr	r3, [r6, #12]
	ldr	r4, [r4, #64]
	add	r3, r3, #36
	cmp	r3, r4
	sub	r4, r4, #64
	bne	.L639
.L636:
	movw	r3, #:lower16:.LANCHOR0
	movt	r3, #:upper16:.LANCHOR0
	ldr	r3, [r3, #396]
	ldr	r3, [r3, #36]
	cmp	r3, #0
	beq	.L635
	mov	r0, r6
	blx	r3
.L635:
	ldrb	r3, [r6, #16]	@ zero_extendqisi2
	orr	r3, r3, #1
	strb	r3, [r6, #16]
	ldr	r3, [r5]
	ldr	r3, [r3, #16]
	cmp	r3, #0
	beq	.L632
	mov	r0, r5
	mov	r1, #2
	ldrd	r4, [sp]
	ldr	r6, [sp, #8]
	ldr	lr, [sp, #12]
	add	sp, sp, #16
	bx	r3
.L637:
	ldr	r4, [r4, #64]
	cmp	r3, r4
	sub	r4, r4, #64
	bne	.L639
	b	.L636
.L632:
	ldrd	r4, [sp]
	ldr	r6, [sp, #8]
	add	sp, sp, #12
	ldr	pc, [sp], #4
	.fnend
	.size	composite_suspend, .-composite_suspend
	.align	2
	.syntax unified
	.arm
	.fpu softvfp
	.type	composite_resume, %function
composite_resume:
	.fnstart
	@ args = 0, pretend = 0, frame = 0
	@ frame_needed = 0, uses_anonymous_args = 0
	strd	r4, [sp, #-16]!
	.save {r4, r5, r6, lr}
	str	r6, [sp, #8]
	mov	r6, r0
	add	r0, r0, #32
	str	lr, [sp, #12]
	bl	dev_get_drvdata
	movw	r3, #:lower16:.LANCHOR0
	mov	r5, r0
	movt	r3, #:upper16:.LANCHOR0
	ldr	r3, [r3, #396]
	ldr	r3, [r3, #40]
	cmp	r3, #0
	beq	.L643
	blx	r3
.L643:
	ldr	r1, [r5, #12]
	cmp	r1, #0
	beq	.L645
	mov	r2, r1
	ldr	r4, [r2, #36]!
	cmp	r2, r4
	sub	r4, r4, #64
	beq	.L646
.L650:
	ldr	r3, [r4, #52]
	mov	r0, r4
	cmp	r3, #0
	beq	.L647
	blx	r3
	ldr	r1, [r5, #12]
	ldr	r4, [r4, #64]
	add	r2, r1, #36
	cmp	r2, r4
	sub	r4, r4, #64
	bne	.L650
.L646:
	ldrb	r3, [r1, #23]	@ zero_extendqisi2
	cmp	r3, #0
	ldrne	r1, [r5, #64]
	moveq	r1, #500
	mulne	r1, r1, r3
	ldr	r3, [r6]
	ldr	r3, [r3, #16]
	cmp	r3, #0
	beq	.L645
	mov	r0, r6
	blx	r3
.L645:
	ldrb	r3, [r5, #16]	@ zero_extendqisi2
	bfc	r3, #0, #1
	strb	r3, [r5, #16]
	ldrd	r4, [sp]
	ldr	r6, [sp, #8]
	add	sp, sp, #12
	ldr	pc, [sp], #4
.L647:
	ldr	r4, [r4, #64]
	cmp	r2, r4
	sub	r4, r4, #64
	bne	.L650
	b	.L646
	.fnend
	.size	composite_resume, .-composite_resume
	.align	2
	.syntax unified
	.arm
	.fpu softvfp
	.type	audio_pcm_hw_params, %function
audio_pcm_hw_params:
	.fnstart
	@ args = 0, pretend = 0, frame = 0
	@ frame_needed = 0, uses_anonymous_args = 0
	strd	r4, [sp, #-24]!
	.save {r4, r5, r6, r7, r8, lr}
	mov	r5, r1
	movw	r2, #44100
	strd	r6, [sp, #8]
	str	r8, [sp, #16]
	str	lr, [sp, #20]
	ldr	r3, [r1, #284]
	.pad #8
	sub	sp, sp, #8
	ldr	r1, [r1, #296]
	cmp	r3, #2
	cmpeq	r1, r2
	bne	.L667
	ldr	r1, [r0]
	mov	r4, r0
	add	r6, r0, #172
	ldr	r3, [r1]
	ldr	r0, [r3, #500]
	add	r0, r0, #256
	ldrd	r2, [r0]
	orrs	r3, r2, r3
	beq	.L674
.L663:
	mov	r3, #2
	mov	r0, #0
	add	r2, r4, #184
	str	r3, [r4, #172]
	ldr	r3, [r1]
	ldr	r3, [r3, #500]
	str	r3, [r4, #176]
	str	r0, [r4, #192]
	ldr	r3, [r1]
	ldr	r1, [r5, #380]
	ldr	r0, [r3, #500]
	cmp	r0, #0
	beq	.L664
	ldr	ip, [r0, #284]
	cmp	ip, #0
	beq	.L664
.L665:
	mov	r7, #0
	mov	r3, #208
	str	r7, [sp]
	ldr	r8, [ip]
	blx	r8
	cmp	r0, r7
	str	r0, [r4, #180]
	beq	.L669
	ldr	r2, [r5, #380]
	cmp	r6, r7
	ldr	r3, [r4, #208]
	str	r2, [r4, #188]
	beq	.L666
	str	r6, [r3, #560]
	ldr	r2, [r4, #180]
	mov	r0, r7
	str	r2, [r3, #548]
	ldr	r2, [r4, #184]
	str	r2, [r3, #552]
	ldr	r2, [r4, #188]
	str	r2, [r3, #556]
.L661:
	add	sp, sp, #8
	@ sp needed
	ldrd	r4, [sp]
	ldrd	r6, [sp, #8]
	ldr	r8, [sp, #16]
	add	sp, sp, #20
	ldr	pc, [sp], #4
.L664:
	movw	r3, #:lower16:arm_dma_ops
	movt	r3, #:upper16:arm_dma_ops
	cmp	r3, #0
	movne	ip, r3
	bne	.L665
	.syntax divided
@ 170 "/run/media/tfonda/HDD/android/bacon/android_kernel_oppo_msm8974/arch/arm/include/asm/dma-mapping.h" 1
	.word 0xe7f001f2
@ 0 "" 2
	.arm
	.syntax unified
.L674:
	mvn	r2, #0
	mov	r3, #0
	strd	r2, [r0]
	ldr	r1, [r4]
	b	.L663
.L666:
	add	r2, r3, #560
	mov	r4, #0
	str	r6, [r3, #548]
	mov	r5, #0
	mov	r0, r6
	str	r6, [r3, #560]
	strd	r4, [r2, #-8]
	b	.L661
.L667:
	mvn	r0, #21
	b	.L661
.L669:
	mvn	r0, #11
	b	.L661
	.fnend
	.size	audio_pcm_hw_params, .-audio_pcm_hw_params
	.align	2
	.syntax unified
	.arm
	.fpu softvfp
	.type	audio_pcm_hw_free, %function
audio_pcm_hw_free:
	.fnstart
	@ args = 0, pretend = 0, frame = 0
	@ frame_needed = 0, uses_anonymous_args = 0
	strd	r4, [sp, #-12]!
	.save {r4, r5, lr}
	mov	r4, r0
	str	lr, [sp, #8]
	ldr	r2, [r0, #180]
	.pad #12
	sub	sp, sp, #12
	cmp	r2, #0
	beq	.L676
	ldr	r0, [r0]
	ldr	r3, [r4, #184]
	ldr	r1, [r4, #188]
	ldr	r0, [r0]
	ldr	r0, [r0, #500]
	cmp	r0, #0
	beq	.L677
	ldr	ip, [r0, #284]
	cmp	ip, #0
	beq	.L677
.L678:
	mov	lr, #0
	str	lr, [sp]
	ldr	r5, [ip, #4]
	blx	r5
.L676:
	mov	r0, #0
	str	r0, [r4, #180]
	add	sp, sp, #12
	@ sp needed
	ldrd	r4, [sp]
	add	sp, sp, #8
	ldr	pc, [sp], #4
.L677:
	movw	ip, #:lower16:arm_dma_ops
	movt	ip, #:upper16:arm_dma_ops
	cmp	ip, #0
	bne	.L678
	.syntax divided
@ 201 "/run/media/tfonda/HDD/android/bacon/android_kernel_oppo_msm8974/arch/arm/include/asm/dma-mapping.h" 1
	.word 0xe7f001f2
@ 0 "" 2
	.arm
	.syntax unified
	.fnend
	.size	audio_pcm_hw_free, .-audio_pcm_hw_free
	.section	.text.unlikely,"ax",%progbits
	.align	2
	.syntax unified
	.arm
	.fpu softvfp
	.type	ffs_do_descs, %function
ffs_do_descs:
	.fnstart
	@ args = 4, pretend = 0, frame = 0
	@ frame_needed = 0, uses_anonymous_args = 0
	push	{r4, r5, r6, r7, r8, r9, r10, fp, lr}
	.save {r4, r5, r6, r7, r8, r9, r10, fp, lr}
	.pad #4
	sub	sp, sp, #4
	ldr	r7, [sp, #40]
	mov	r8, r2
	mov	r10, r0
	mov	fp, r1
	mov	r5, r3
	mov	r6, r2
	mov	r9, #0
.L700:
	cmp	r9, r10
	mov	r3, r7
	moveq	fp, #0
	mov	r1, r9
	mov	r2, fp
	mov	r0, #0
	blx	r5
	cmp	r0, #0
	blt	.L687
	cmp	fp, #0
	bne	.L690
	sub	r0, r8, r6
	b	.L687
.L690:
	cmp	r6, #1
	bls	.L710
	ldrb	r4, [fp]	@ zero_extendqisi2
	cmp	r6, r4
	bcc	.L710
	ldrb	r3, [fp, #1]	@ zero_extendqisi2
	cmp	r3, #11
	bhi	.L691
	cmp	r3, #3
	bls	.L710
	sub	r3, r3, #4
	cmp	r3, #7
	ldrls	pc, [pc, r3, asl #2]
	b	.L710
.L693:
	.word	.L696
	.word	.L695
	.word	.L710
	.word	.L710
	.word	.L710
	.word	.L694
	.word	.L710
	.word	.L692
.L691:
	cmp	r3, #48
	beq	.L697
	b	.L710
.L696:
	cmp	r4, #9
	bne	.L710
	mov	r3, r7
	mov	r2, fp
	add	r1, fp, #2
	mov	r0, #1
	blx	r5
	cmp	r0, #0
	blt	.L687
	ldrb	r3, [fp, #8]	@ zero_extendqisi2
	cmp	r3, #0
	bne	.L699
.L701:
	sub	r6, r6, r4
	add	fp, fp, r4
	add	r9, r9, #1
	b	.L700
.L699:
	mov	r3, r7
	mov	r2, fp
	add	r1, fp, #8
	mov	r0, #2
	blx	r5
	cmp	r0, #0
	bge	.L701
	b	.L687
.L695:
	sub	r3, r4, #7
	tst	r3, #253
	bne	.L710
	ldrb	r3, [fp, #2]	@ zero_extendqisi2
	tst	r3, #15
	beq	.L710
	mov	r3, r7
	mov	r2, fp
	add	r1, fp, #2
	mov	r0, #3
	blx	r5
	cmp	r0, #0
	bge	.L701
	b	.L687
.L694:
	cmp	r4, #5
	beq	.L701
	b	.L710
.L692:
	cmp	r4, #8
	bne	.L710
	ldrb	r3, [fp, #7]	@ zero_extendqisi2
	cmp	r3, #0
	beq	.L701
	mov	r3, r7
	mov	r2, fp
	add	r1, fp, #7
	mov	r0, #2
	blx	r5
	cmp	r0, #0
	bge	.L701
	b	.L687
.L697:
	cmp	r4, #6
	beq	.L701
.L710:
	mvn	r0, #21
.L687:
	add	sp, sp, #4
	@ sp needed
	pop	{r4, r5, r6, r7, r8, r9, r10, fp, pc}
	.fnend
	.size	ffs_do_descs, .-ffs_do_descs
	.text
	.align	2
	.syntax unified
	.arm
	.fpu softvfp
	.type	ffs_ep0_open, %function
ffs_ep0_open:
	.fnstart
	@ args = 0, pretend = 0, frame = 0
	@ frame_needed = 0, uses_anonymous_args = 0
	@ link register save eliminated.
	ldr	r3, [r0, #348]
	ldr	r2, [r3, #96]
	cmp	r2, #3
	beq	.L720
	add	r2, r3, #88
	str	r3, [r1, #132]
	.syntax divided
@ 44 "/run/media/tfonda/HDD/android/bacon/android_kernel_oppo_msm8974/arch/arm/include/asm/atomic.h" 1
	@ atomic_add
1:	ldrex	r1, [r2]
	add	r1, r1, #1
	strex	r0, r1, [r2]
	teq	r0, #0
	bne	1b
@ 0 "" 2
	.arm
	.syntax unified
	add	r2, r3, #92
	.syntax divided
@ 44 "/run/media/tfonda/HDD/android/bacon/android_kernel_oppo_msm8974/arch/arm/include/asm/atomic.h" 1
	@ atomic_add
1:	ldrex	r1, [r2]
	add	r1, r1, #1
	strex	r0, r1, [r2]
	teq	r0, #0
	bne	1b
@ 0 "" 2
	.arm
	.syntax unified
	mov	r0, #0
	bx	lr
.L720:
	mvn	r0, #15
	bx	lr
	.fnend
	.size	ffs_ep0_open, .-ffs_ep0_open
	.section	.rodata.str1.4
	.align	2
.LC12:
	.ascii	"drivers/usb/gadget/f_fs.c\000"
	.text
	.align	2
	.syntax unified
	.arm
	.fpu softvfp
	.type	ffs_epfile_open, %function
ffs_epfile_open:
	.fnstart
	@ args = 0, pretend = 0, frame = 0
	@ frame_needed = 0, uses_anonymous_args = 0
	ldr	r2, [r0, #348]
	ldr	r3, [r2, #40]
	ldr	r3, [r3, #96]
	cmp	r3, #2
	bne	.L728
	str	r2, [r1, #132]
	ldr	r3, [r2, #40]
	add	r1, r3, #88
	.syntax divided
@ 44 "/run/media/tfonda/HDD/android/bacon/android_kernel_oppo_msm8974/arch/arm/include/asm/atomic.h" 1
	@ atomic_add
1:	ldrex	r0, [r1]
	add	r0, r0, #1
	strex	ip, r0, [r1]
	teq	ip, #0
	bne	1b
@ 0 "" 2
	.arm
	.syntax unified
	add	r1, r3, #92
	.syntax divided
@ 44 "/run/media/tfonda/HDD/android/bacon/android_kernel_oppo_msm8974/arch/arm/include/asm/atomic.h" 1
	@ atomic_add
1:	ldrex	r0, [r1]
	add	r0, r0, #1
	strex	ip, r0, [r1]
	teq	ip, #0
	bne	1b
@ 0 "" 2
	.arm
	.syntax unified
	mov	r3, #0
	mov	r0, r3
	str	r3, [r2, #36]
	bx	lr
.L728:
	movw	r0, #:lower16:.LC12
	mov	r1, #948
	.save {r4, lr}
	str	r4, [sp, #-8]!
	movt	r0, #:upper16:.LC12
	str	lr, [sp, #4]
	bl	warn_slowpath_null
	ldr	r4, [sp]
	add	sp, sp, #4
	mvn	r0, #18
	ldr	pc, [sp], #4
	.fnend
	.size	ffs_epfile_open, .-ffs_epfile_open
	.align	2
	.syntax unified
	.arm
	.fpu softvfp
	.type	do_mode_sense, %function
do_mode_sense:
	.fnstart
	@ args = 0, pretend = 0, frame = 0
	@ frame_needed = 0, uses_anonymous_args = 0
	strd	r4, [sp, #-32]!
	.save {r4, r5, r6, r7, r8, r9, r10, lr}
	strd	r6, [sp, #8]
	strd	r8, [sp, #16]
	str	r10, [sp, #24]
	str	lr, [sp, #28]
	ldrb	r3, [r0, #77]	@ zero_extendqisi2
	ldrb	r7, [r0, #76]	@ zero_extendqisi2
	ldr	r5, [r1]
	ldr	r8, [r0, #104]
	tst	r3, #247
	bne	.L737
	ldrb	r6, [r0, #78]	@ zero_extendqisi2
	lsr	r9, r6, #6
	and	r6, r6, #63
	cmp	r9, #3
	moveq	r3, #14592
	mvneq	r0, #21
	movteq	r3, 5
	streq	r3, [r8, #28]
	beq	.L729
	mov	r1, #8
	mov	r0, r5
	bl	__memzero
	sub	r3, r6, #63
	cmp	r7, #26
	ldrb	r2, [r8, #24]	@ zero_extendqisi2
	clz	r3, r3
	lsr	r3, r3, #5
	beq	.L743
	lsl	r2, r2, #6
	add	r4, r5, #8
	bic	r2, r2, #127
	movw	r10, #65535
	strb	r2, [r5, #3]
.L734:
	cmp	r6, #8
	movne	r6, r3
	orreq	r6, r3, #1
	cmp	r6, #0
	bne	.L735
.L737:
	mov	r3, #9216
	mvn	r0, #21
	movt	r3, 5
	str	r3, [r8, #28]
.L729:
	ldrd	r4, [sp]
	ldrd	r6, [sp, #8]
	ldrd	r8, [sp, #16]
	ldr	r10, [sp, #24]
	add	sp, sp, #28
	ldr	pc, [sp], #4
.L743:
	lsl	r2, r2, #6
	add	r4, r5, #4
	mov	r10, #255
	bic	r2, r2, #127
	strb	r2, [r5, #2]
	b	.L734
.L735:
	mov	r3, #8
	mov	r1, #10
	add	r0, r4, #2
	strb	r3, [r4]
	strb	r1, [r4, #1]
	bl	__memzero
	cmp	r9, #1
	beq	.L736
	mvn	r3, #0
	mov	r2, #4
	strb	r2, [r4, #2]
	strb	r3, [r4, #4]
	strb	r3, [r4, #5]
	str	r3, [r4, #8]	@ unaligned
.L736:
	add	r0, r4, #12
	sub	r0, r0, r5
	cmp	r10, r0
	blt	.L737
	cmp	r7, #26
	subeq	r3, r0, #1
	strbeq	r3, [r5]
	beq	.L729
	sub	r3, r0, #2
	ubfx	r2, r3, #8, #8
	strb	r2, [r5]
	strb	r3, [r5, #1]
	b	.L729
	.fnend
	.size	do_mode_sense, .-do_mode_sense
	.section	.rodata.str1.4
	.align	2
.LC13:
	.ascii	"<3>%s: device is already opened\012\000"
	.text
	.align	2
	.global	usb_rmnet_mux_ctrl_open
	.syntax unified
	.arm
	.fpu softvfp
	.type	usb_rmnet_mux_ctrl_open, %function
usb_rmnet_mux_ctrl_open:
	.fnstart
	@ args = 0, pretend = 0, frame = 0
	@ frame_needed = 0, uses_anonymous_args = 0
	movw	r3, #:lower16:.LANCHOR0
	strd	r4, [sp, #-24]!
	.save {r4, r5, r6, r7, r8, lr}
	movt	r3, #:upper16:.LANCHOR0
	strd	r6, [sp, #8]
	mov	r6, r1
	str	r8, [sp, #16]
	str	lr, [sp, #20]
	ldr	r5, [r3, #400]
	add	r7, r5, #356
	mov	r0, r7
	bl	_raw_spin_lock_irqsave
	ldr	r4, [r5, #344]
	mov	r1, r0
	cmp	r4, #0
	bne	.L748
	mov	r3, #1
	mov	r0, r7
	str	r3, [r5, #344]
	str	r5, [r6, #132]
	bl	_raw_spin_unlock_irqrestore
	mov	r0, r4
.L744:
	ldrd	r4, [sp]
	ldrd	r6, [sp, #8]
	ldr	r8, [sp, #16]
	add	sp, sp, #20
	ldr	pc, [sp], #4
.L748:
	mov	r0, r7
	bl	_raw_spin_unlock_irqrestore
	movw	r1, #:lower16:.LANCHOR2
	movw	r0, #:lower16:.LC13
	movt	r1, #:upper16:.LANCHOR2
	movt	r0, #:upper16:.LC13
	bl	printk
	mvn	r0, #15
	b	.L744
	.fnend
	.size	usb_rmnet_mux_ctrl_open, .-usb_rmnet_mux_ctrl_open
	.section	.rodata.str1.4
	.align	2
.LC14:
	.ascii	"<3>audio response on err %d\012\000"
	.text
	.align	2
	.syntax unified
	.arm
	.fpu softvfp
	.type	audio_setup, %function
audio_setup:
	.fnstart
	@ args = 0, pretend = 0, frame = 0
	@ frame_needed = 0, uses_anonymous_args = 0
	.save {r4, lr}
	str	r4, [sp, #-8]!
	mov	r3, r1
	str	lr, [sp, #4]
	ldr	r0, [r0, #20]
	ldrb	r2, [r1]	@ zero_extendqisi2
	ldr	r0, [r0, #24]
	cmp	r2, #34
	ldr	r1, [r0, #4]
	beq	.L750
	cmp	r2, #162
	bne	.L756
	ldrh	r2, [r3, #2]	@ unaligned
	ldrb	r3, [r3, #1]	@ zero_extendqisi2
	ldr	ip, [r1]
	cmp	r2, #256
	bne	.L756
	sub	r3, r3, #129
	cmp	r3, #3
	bhi	.L756
	mov	r4, #68
	mvn	lr, #83
	mov	r3, #0
	mov	r2, #3
	strb	r4, [ip]
	strb	lr, [ip, #1]
	strb	r3, [ip, #2]
.L753:
	ldrb	ip, [r1, #26]	@ zero_extendqisi2
	movw	r3, #:lower16:audio_control_complete
	str	r2, [r1, #4]
	movt	r3, #:upper16:audio_control_complete
	mov	r2, #32
	str	r3, [r1, #28]
	bfc	ip, #1, #1
	strb	ip, [r1, #26]
	ldr	r3, [r0]
	ldr	r0, [r3, #4]
	ldr	r3, [r0, #8]
	ldr	r3, [r3, #16]
	blx	r3
	subs	r4, r0, #0
	bge	.L749
	movw	r0, #:lower16:.LC14
	mov	r1, r4
	movt	r0, #:upper16:.LC14
	bl	printk
	b	.L749
.L750:
	ldrb	ip, [r3, #1]	@ zero_extendqisi2
	ldrh	r2, [r3, #6]	@ unaligned
	sub	r3, ip, #1
	cmp	r3, #3
	bls	.L753
.L756:
	mvn	r4, #94
.L749:
	mov	r0, r4
	ldr	r4, [sp]
	add	sp, sp, #4
	ldr	pc, [sp], #4
	.fnend
	.size	audio_setup, .-audio_setup
	.section	.rodata.str1.4
	.align	2
.LC15:
	.ascii	"<3>%s: port is null\012\000"
	.align	2
.LC16:
	.ascii	"<3>%s: usb ep out queue failedport:%pK, port#%d\012"
	.ascii	"\000"
	.text
	.align	2
	.syntax unified
	.arm
	.fpu softvfp
	.type	gsmd_start_rx, %function
gsmd_start_rx:
	.fnstart
	@ args = 0, pretend = 0, frame = 0
	@ frame_needed = 0, uses_anonymous_args = 0
	strd	r4, [sp, #-36]!
	.save {r4, r5, r6, r7, r8, r9, r10, fp, lr}
	strd	r6, [sp, #8]
	subs	r6, r0, #0
	strd	r8, [sp, #16]
	strd	r10, [sp, #24]
	str	lr, [sp, #32]
	.pad #4
	sub	sp, sp, #4
	beq	.L772
	add	r7, r6, #4
	mov	r0, r7
	bl	_raw_spin_lock_irqsave
	ldr	r3, [r6, #68]
	mov	r5, r0
	cmp	r3, #0
	beq	.L760
	add	r9, r6, #12
	mov	fp, #256
	ldr	r8, [r3, #84]
	mov	r10, #512
	b	.L761
.L774:
	ldr	r4, [r6, #12]
	cmp	r9, r4
	beq	.L760
	ldrd	r2, [r4]
	str	r3, [r2, #4]
	str	r2, [r3]
	mov	r3, #2048
	str	r3, [r4, #-32]
	str	fp, [r4]
	str	r10, [r4, #4]
	bl	_raw_spin_unlock_irqrestore
	ldr	r3, [r8, #8]
	mov	r2, #208
	sub	r1, r4, #36
	mov	r0, r8
	ldr	r3, [r3, #16]
	blx	r3
	mov	r5, r0
	mov	r0, r7
	bl	_raw_spin_lock_irqsave
	cmp	r5, #0
	mov	r5, r0
	bne	.L773
.L761:
	ldr	r3, [r6, #72]
	mov	r1, r5
	mov	r0, r7
	ldr	r3, [r3, #8]
	tst	r3, #1
	bne	.L774
.L760:
	mov	r1, r5
	mov	r0, r7
	add	sp, sp, #4
	@ sp needed
	ldrd	r4, [sp]
	ldrd	r6, [sp, #8]
	ldrd	r8, [sp, #16]
	ldrd	r10, [sp, #24]
	ldr	lr, [sp, #32]
	add	sp, sp, #36
	b	_raw_spin_unlock_irqrestore
.L772:
	ldr	r1, .L775
	movw	r0, #:lower16:.LC15
	movt	r0, #:upper16:.LC15
	add	sp, sp, #4
	@ sp needed
	ldrd	r4, [sp]
	ldrd	r6, [sp, #8]
	ldrd	r8, [sp, #16]
	ldrd	r10, [sp, #24]
	ldr	lr, [sp, #32]
	add	sp, sp, #36
	b	printk
.L773:
	movw	r0, #:lower16:.LC16
	ldr	r1, .L775
	mov	r2, r6
	movt	r0, #:upper16:.LC16
	ldr	r3, [r6]
	bl	printk
	ldr	r3, [r6, #16]
	str	r4, [r6, #16]
	str	r9, [r4]
	str	r3, [r4, #4]
	str	r4, [r3]
	b	.L760
.L776:
	.align	2
.L775:
	.word	.LANCHOR2+24
	.fnend
	.size	gsmd_start_rx, .-gsmd_start_rx
	.section	.rodata.str1.4
	.align	2
.LC17:
	.ascii	"<3>%s: port->port_usb is NULL\000"
	.align	2
.LC18:
	.ascii	"<3>%s: error dequeuing transfer, %d\012\000"
	.text
	.align	2
	.syntax unified
	.arm
	.fpu softvfp
	.type	gbam_stop, %function
gbam_stop:
	.fnstart
	@ args = 0, pretend = 0, frame = 0
	@ frame_needed = 0, uses_anonymous_args = 0
	cmp	r1, #0
	strd	r4, [sp, #-16]!
	.save {r4, r5, r6, lr}
	mov	r4, r0
	str	r6, [sp, #8]
	str	lr, [sp, #12]
	bne	.L778
	add	r5, r0, #4
	mov	r0, r5
	bl	_raw_spin_lock
	ldr	r3, [r4, #12]
	cmp	r3, #0
	beq	.L791
	ldr	r0, [r3, #80]
	ldr	r1, [r4, #112]
	ldr	r3, [r0, #8]
	ldr	r3, [r3, #20]
	blx	r3
	subs	r2, r0, #0
	beq	.L782
	movw	r0, #:lower16:.LC18
	ldr	r1, .L794
	movt	r0, #:upper16:.LC18
	bl	printk
	b	.L782
.L778:
	add	r5, r0, #8
	mov	r0, r5
	bl	_raw_spin_lock
	ldr	r3, [r4, #12]
	cmp	r3, #0
	beq	.L792
	ldr	r0, [r3, #76]
	ldr	r1, [r4, #116]
	ldr	r3, [r0, #8]
	ldr	r3, [r3, #20]
	blx	r3
	subs	r2, r0, #0
	bne	.L793
.L782:
	mov	r0, r5
	ldrd	r4, [sp]
	ldr	r6, [sp, #8]
	ldr	lr, [sp, #12]
	add	sp, sp, #16
	b	_raw_spin_unlock
.L792:
	mov	r0, r5
	bl	_raw_spin_unlock
	ldr	r1, .L794+4
	movw	r0, #:lower16:.LC17
.L790:
	movt	r0, #:upper16:.LC17
	ldrd	r4, [sp]
	ldr	r6, [sp, #8]
	ldr	lr, [sp, #12]
	add	sp, sp, #16
	b	printk
.L791:
	mov	r0, r5
	bl	_raw_spin_unlock
	ldr	r1, .L794
	movw	r0, #:lower16:.LC17
	b	.L790
.L793:
	movw	r0, #:lower16:.LC18
	ldr	r1, .L794+4
	movt	r0, #:upper16:.LC18
	bl	printk
	b	.L782
.L795:
	.align	2
.L794:
	.word	.LANCHOR2+40
	.word	.LANCHOR2+64
	.fnend
	.size	gbam_stop, .-gbam_stop
	.section	.rodata.str1.4
	.align	2
.LC19:
	.ascii	"<3>%s: Invalid portno#%d\012\000"
	.text
	.align	2
	.syntax unified
	.arm
	.fpu softvfp
	.type	ghsic_send_cpkt_tomodem, %function
ghsic_send_cpkt_tomodem:
	.fnstart
	@ args = 0, pretend = 0, frame = 0
	@ frame_needed = 0, uses_anonymous_args = 0
	movw	ip, #:lower16:.LANCHOR0
	mov	r3, r0
	strd	r4, [sp, #-24]!
	.save {r4, r5, r6, r7, r8, lr}
	movt	ip, #:upper16:.LANCHOR0
	strd	r6, [sp, #8]
	ldr	r0, [ip, #404]
	str	r8, [sp, #16]
	str	lr, [sp, #20]
	cmp	r3, r0
	bcs	.L803
	mov	r0, #104
	mla	r3, r0, r3, ip
	ldr	r5, [r3, #408]
	cmp	r5, #0
	beq	.L804
	mov	r6, r1
	mov	r0, r2
	mov	r1, #32
	mov	r4, r2
	bl	__kmalloc
	subs	r7, r0, #0
	beq	.L801
	mov	r2, r4
	mov	r1, r6
	bl	memcpy
	ldr	r0, [r5, #84]
	ands	r4, r0, #1
	beq	.L805
	ldr	r3, [r5, #96]
	mov	r4, #0
	add	r3, r3, #1
	str	r3, [r5, #96]
.L796:
	mov	r0, r4
	ldrd	r4, [sp]
	ldrd	r6, [sp, #8]
	ldr	r8, [sp, #16]
	add	sp, sp, #20
	ldr	pc, [sp], #4
.L805:
	ldr	r3, [r5, #104]
	mov	r0, r7
	add	r3, r3, #1
	str	r3, [r5, #104]
	bl	kfree
	b	.L796
.L801:
	mvn	r4, #11
	b	.L796
.L804:
	movw	r0, #:lower16:.LC15
	ldr	r1, .L806
	mvn	r4, #18
	movt	r0, #:upper16:.LC15
	bl	printk
	b	.L796
.L803:
	movw	r0, #:lower16:.LC19
	ldr	r1, .L806
	mov	r2, r3
	movt	r0, #:upper16:.LC19
	mvn	r4, #18
	bl	printk
	b	.L796
.L807:
	.align	2
.L806:
	.word	.LANCHOR2+88
	.fnend
	.size	ghsic_send_cpkt_tomodem, .-ghsic_send_cpkt_tomodem
	.section	.rodata.str1.4
	.align	2
.LC20:
	.ascii	"<3>%s: ecm req %02x.%02x response err %d\012\000"
	.text
	.align	2
	.syntax unified
	.arm
	.fpu softvfp
	.type	ecm_qc_setup, %function
ecm_qc_setup:
	.fnstart
	@ args = 0, pretend = 0, frame = 0
	@ frame_needed = 0, uses_anonymous_args = 0
	strd	r4, [sp, #-12]!
	.save {r4, r5, lr}
	mov	r4, r1
	movw	r1, #17185
	str	lr, [sp, #8]
	ldr	ip, [r0, #20]
	.pad #12
	sub	sp, sp, #12
	ldrh	r3, [r4]	@ unaligned
	ldrh	r2, [r4, #6]	@ unaligned
	ldrh	lr, [r4, #4]	@ unaligned
	ldr	ip, [ip, #24]
	cmp	r2, #0
	cmpeq	r3, r1
	ldrh	r2, [r4, #2]	@ unaligned
	movne	r3, #1
	moveq	r3, #0
	ldr	r1, [ip, #4]
	bne	.L811
	ldrb	r5, [r0, #112]	@ zero_extendqisi2
	cmp	r5, lr
	bne	.L811
	strh	r2, [r0, #90]	@ movhi
	ldrb	r0, [r1, #26]	@ zero_extendqisi2
	mov	r2, #32
	str	r3, [r1, #4]
	bfi	r0, r3, #1, #1
	strb	r0, [r1, #26]
	ldr	r3, [ip]
	ldr	r0, [r3, #4]
	ldr	r3, [r0, #8]
	ldr	r3, [r3, #16]
	blx	r3
	subs	r5, r0, #0
	blt	.L813
.L808:
	mov	r0, r5
	add	sp, sp, #12
	@ sp needed
	ldrd	r4, [sp]
	add	sp, sp, #8
	ldr	pc, [sp], #4
.L811:
	mvn	r5, #94
	b	.L808
.L813:
	movw	r0, #:lower16:.LC20
	ldrb	r3, [r4, #1]	@ zero_extendqisi2
	str	r5, [sp]
	ldr	r1, .L814
	movt	r0, #:upper16:.LC20
	ldrb	r2, [r4]	@ zero_extendqisi2
	bl	printk
	b	.L808
.L815:
	.align	2
.L814:
	.word	.LANCHOR2+112
	.fnend
	.size	ecm_qc_setup, .-ecm_qc_setup
	.section	.rodata.str1.4
	.align	2
.LC21:
	.ascii	"<3>%s: Bad control-OUT transfer\012\000"
	.align	2
.LC22:
	.ascii	"<3>%s: Illegal INPUT SIZE (%d) from host\012\000"
	.align	2
.LC23:
	.ascii	"<3>%s: Illegal NTB length %d\012\000"
	.align	2
.LC24:
	.ascii	"<3>%s: dev:%pK Failed\012\000"
	.text
	.align	2
	.syntax unified
	.arm
	.fpu softvfp
	.type	mbim_ep0out_complete, %function
mbim_ep0out_complete:
	.fnstart
	@ args = 0, pretend = 0, frame = 0
	@ frame_needed = 0, uses_anonymous_args = 0
	strd	r4, [sp, #-16]!
	.save {r4, r5, r6, lr}
	mov	r3, #0
	mov	r4, r0
	str	r6, [sp, #8]
	str	lr, [sp, #12]
	ldr	r5, [r1, #32]
	ldr	r2, [r1, #44]
	str	r3, [r1, #32]
	cmp	r2, r3
	bne	.L817
	ldr	r0, [r1, #4]
	ldr	r3, [r1, #48]
	cmp	r3, r0
	bne	.L817
	cmp	r3, #4
	beq	.L829
	cmp	r3, #8
	bne	.L823
	ldr	r1, [r1]
	ldr	r2, [r1]	@ unaligned
	cmp	r2, #2048
	bcc	.L824
	movw	r3, #:lower16:.LANCHOR1
	movt	r3, #:upper16:.LANCHOR1
	ldr	r3, [r3, #140]
	cmp	r3, r2
	bcc	.L824
	ldrb	r0, [r1, #5]	@ zero_extendqisi2
	ldrb	r3, [r1, #4]	@ zero_extendqisi2
	orr	r3, r3, r0, lsl #8
	strh	r3, [r5, #220]	@ movhi
.L822:
	str	r2, [r5, #216]
	ldrd	r4, [sp]
	ldr	r6, [sp, #8]
	add	sp, sp, #12
	ldr	pc, [sp], #4
.L829:
	ldr	r3, [r1]
	ldr	r2, [r3]	@ unaligned
	cmp	r2, #2048
	bcc	.L824
	movw	r3, #:lower16:.LANCHOR1
	movt	r3, #:upper16:.LANCHOR1
	ldr	r3, [r3, #140]
	cmp	r3, r2
	bcs	.L822
.L824:
	movw	r0, #:lower16:.LC22
	ldr	r1, .L830
	movt	r0, #:upper16:.LC22
	bl	printk
	b	.L819
.L817:
	movw	r0, #:lower16:.LC21
	ldr	r1, .L830
	movt	r0, #:upper16:.LC21
	bl	printk
.L819:
	ldr	r3, [r4, #8]
	mov	r0, r4
	mov	r1, #1
	ldr	r3, [r3, #24]
	blx	r3
	movw	r0, #:lower16:.LC24
	mov	r2, r5
	ldr	r1, .L830
	movt	r0, #:upper16:.LC24
	ldrd	r4, [sp]
	ldr	r6, [sp, #8]
	ldr	lr, [sp, #12]
	add	sp, sp, #16
	b	printk
.L823:
	movw	r0, #:lower16:.LC23
	ldr	r1, .L830
	movt	r0, #:upper16:.LC23
	bl	printk
	b	.L819
.L831:
	.align	2
.L830:
	.word	.LANCHOR2+128
	.fnend
	.size	mbim_ep0out_complete, .-mbim_ep0out_complete
	.section	.rodata.str1.4
	.align	2
.LC25:
	.ascii	"<3>%s: %s: error dequeuing transfer, %d\012\000"
	.text
	.align	2
	.syntax unified
	.arm
	.fpu softvfp
	.type	bam_data_stop, %function
bam_data_stop:
	.fnstart
	@ args = 0, pretend = 0, frame = 0
	@ frame_needed = 0, uses_anonymous_args = 0
	cmp	r1, #0
	mov	r3, r0
	.save {r4, lr}
	str	r4, [sp, #-8]!
	str	lr, [sp, #4]
	ldr	r2, [r0, #4]
	bne	.L833
	cmp	r2, #0
	beq	.L832
	ldr	r0, [r2, #12]
	ldr	r1, [r3, #36]
	ldr	r3, [r0, #8]
	ldr	r3, [r3, #20]
	blx	r3
	subs	r3, r0, #0
	ldrne	r2, .L848
	bne	.L847
.L832:
	ldr	r4, [sp]
	add	sp, sp, #4
	ldr	pc, [sp], #4
.L833:
	cmp	r2, #0
	beq	.L832
	ldr	r0, [r2, #8]
	ldr	r1, [r3, #40]
	ldr	r3, [r0, #8]
	ldr	r3, [r3, #20]
	blx	r3
	subs	r3, r0, #0
	beq	.L832
	ldr	r2, .L848+4
.L847:
	movw	r0, #:lower16:.LC25
	mov	r1, r2
	ldr	r4, [sp]
	movt	r0, #:upper16:.LC25
	ldr	lr, [sp, #4]
	add	sp, sp, #8
	b	printk
.L849:
	.align	2
.L848:
	.word	.LANCHOR2+152
	.word	.LANCHOR2+180
	.fnend
	.size	bam_data_stop, .-bam_data_stop
	.section	.rodata.str1.4
	.align	2
.LC26:
	.ascii	"<3>%s: %s(): cdev or config is NULL.\012\000"
	.align	2
.LC27:
	.ascii	"<6>%s: RNDIS %s response error %d, %d/%d\012\000"
	.text
	.align	2
	.syntax unified
	.arm
	.fpu softvfp
	.type	rndis_qc_response_complete, %function
rndis_qc_response_complete:
	.fnstart
	@ args = 0, pretend = 0, frame = 0
	@ frame_needed = 0, uses_anonymous_args = 0
	strd	r4, [sp, #-16]!
	.save {r4, r5, r6, lr}
	str	r6, [sp, #8]
	str	lr, [sp, #12]
	ldr	r5, [r1, #32]
	.pad #8
	sub	sp, sp, #8
	ldr	r3, [r1, #44]
	ldr	r2, [r5, #20]
	cmp	r2, #0
	beq	.L851
	ldr	r2, [r2, #24]
	cmp	r2, #0
	beq	.L851
	cmn	r3, #104
	beq	.L853
	cmp	r3, #0
	mov	r4, r1
	mov	r6, r0
	beq	.L854
	cmn	r3, #108
	bne	.L855
.L853:
	mov	r3, #0
	str	r3, [r5, #156]
.L850:
	add	sp, sp, #8
	@ sp needed
	ldrd	r4, [sp]
	ldr	r6, [sp, #8]
	add	sp, sp, #12
	ldr	pc, [sp], #4
.L855:
	ldr	r2, [r4, #4]
	movw	r0, #:lower16:.LC27
	ldr	ip, [r4, #48]
	movt	r0, #:upper16:.LC27
	ldr	r1, .L875
	str	r2, [sp, #4]
	ldr	r2, [r6, #4]
	str	ip, [sp]
	bl	printk
.L854:
	ldr	r3, [r5, #148]
	cmp	r3, r6
	bne	.L850
	add	r6, r5, #156
	.syntax divided
@ 99 "/run/media/tfonda/HDD/android/bacon/android_kernel_oppo_msm8974/arch/arm/include/asm/atomic.h" 1
	dmb
@ 0 "" 2
@ 111 "/run/media/tfonda/HDD/android/bacon/android_kernel_oppo_msm8974/arch/arm/include/asm/processor.h" 1
	pld	[r6]
@ 0 "" 2
@ 102 "/run/media/tfonda/HDD/android/bacon/android_kernel_oppo_msm8974/arch/arm/include/asm/atomic.h" 1
	@ atomic_sub_return
1:	ldrex	r3, [r6]
	sub	r3, r3, #1
	strex	r2, r3, [r6]
	teq	r2, #0
	bne	1b
@ 0 "" 2
@ 112 "/run/media/tfonda/HDD/android/bacon/android_kernel_oppo_msm8974/arch/arm/include/asm/atomic.h" 1
	dmb
@ 0 "" 2
	.arm
	.syntax unified
	cmp	r3, #0
	beq	.L850
	ldr	r0, [r5, #148]
	mov	r1, r4
	mov	r2, #32
	ldr	r3, [r0, #8]
	ldr	r3, [r3, #16]
	blx	r3
	cmp	r0, #0
	beq	.L850
	.syntax divided
@ 83 "/run/media/tfonda/HDD/android/bacon/android_kernel_oppo_msm8974/arch/arm/include/asm/atomic.h" 1
	@ atomic_sub
1:	ldrex	r3, [r6]
	sub	r3, r3, #1
	strex	r2, r3, [r6]
	teq	r2, #0
	bne	1b
@ 0 "" 2
	.arm
	.syntax unified
	b	.L850
.L851:
	ldr	r2, .L875
	movw	r0, #:lower16:.LC26
	movt	r0, #:upper16:.LC26
	mov	r1, r2
	add	sp, sp, #8
	@ sp needed
	ldrd	r4, [sp]
	ldr	r6, [sp, #8]
	ldr	lr, [sp, #12]
	add	sp, sp, #16
	b	printk
.L876:
	.align	2
.L875:
	.word	.LANCHOR2+208
	.fnend
	.size	rndis_qc_response_complete, .-rndis_qc_response_complete
	.section	.rodata.str1.4
	.align	2
.LC28:
	.ascii	"<6>%s: notify/0 --> %d\012\000"
	.text
	.align	2
	.syntax unified
	.arm
	.fpu softvfp
	.type	rndis_qc_response_available, %function
rndis_qc_response_available:
	.fnstart
	@ args = 0, pretend = 0, frame = 0
	@ frame_needed = 0, uses_anonymous_args = 0
	strd	r4, [sp, #-16]!
	.save {r4, r5, r6, lr}
	mov	r4, r0
	add	r5, r0, #156
	str	r6, [sp, #8]
	str	lr, [sp, #12]
	ldr	r1, [r0, #152]
	ldr	r0, [r1]
	.syntax divided
@ 60 "/run/media/tfonda/HDD/android/bacon/android_kernel_oppo_msm8974/arch/arm/include/asm/atomic.h" 1
	dmb
@ 0 "" 2
@ 111 "/run/media/tfonda/HDD/android/bacon/android_kernel_oppo_msm8974/arch/arm/include/asm/processor.h" 1
	pld	[r5]
@ 0 "" 2
@ 63 "/run/media/tfonda/HDD/android/bacon/android_kernel_oppo_msm8974/arch/arm/include/asm/atomic.h" 1
	@ atomic_add_return
1:	ldrex	r3, [r5]
	add	r3, r3, #1
	strex	r2, r3, [r5]
	teq	r2, #0
	bne	1b
@ 0 "" 2
@ 73 "/run/media/tfonda/HDD/android/bacon/android_kernel_oppo_msm8974/arch/arm/include/asm/atomic.h" 1
	dmb
@ 0 "" 2
	.arm
	.syntax unified
	cmp	r3, #1
	bne	.L877
	mov	ip, #0
	mov	r2, #32
	stm	r0, {r3, ip}
	ldr	r0, [r4, #148]
	ldr	r3, [r0, #8]
	ldr	r3, [r3, #16]
	blx	r3
	subs	r2, r0, #0
	bne	.L885
.L877:
	ldrd	r4, [sp]
	ldr	r6, [sp, #8]
	add	sp, sp, #12
	ldr	pc, [sp], #4
.L885:
	.syntax divided
@ 83 "/run/media/tfonda/HDD/android/bacon/android_kernel_oppo_msm8974/arch/arm/include/asm/atomic.h" 1
	@ atomic_sub
1:	ldrex	r3, [r5]
	sub	r3, r3, #1
	strex	r1, r3, [r5]
	teq	r1, #0
	bne	1b
@ 0 "" 2
	.arm
	.syntax unified
	movw	r0, #:lower16:.LC28
	ldr	r1, .L886
	movt	r0, #:upper16:.LC28
	ldrd	r4, [sp]
	ldr	r6, [sp, #8]
	ldr	lr, [sp, #12]
	add	sp, sp, #16
	b	printk
.L887:
	.align	2
.L886:
	.word	.LANCHOR2+236
	.fnend
	.size	rndis_qc_response_available, .-rndis_qc_response_available
	.section	.rodata.str1.4
	.align	2
.LC29:
	.ascii	"<3>%s: Failed to allocate playback_copy_buf\000"
	.align	2
.LC30:
	.ascii	"<3>%s: Failed to allocate playback_copy_buf buffer\000"
	.text
	.align	2
	.syntax unified
	.arm
	.fpu softvfp
	.type	f_audio_buffer_alloc, %function
f_audio_buffer_alloc:
	.fnstart
	@ args = 0, pretend = 0, frame = 0
	@ frame_needed = 0, uses_anonymous_args = 0
	movw	r3, #:lower16:kmalloc_caches
	strd	r4, [sp, #-16]!
	.save {r4, r5, r6, lr}
	mov	r5, r0
	movt	r3, #:upper16:kmalloc_caches
	str	r6, [sp, #8]
	str	lr, [sp, #12]
	ldr	r0, [r3, #24]
	cmp	r0, #0
	beq	.L891
	movw	r1, #32800
	bl	kmem_cache_alloc
	subs	r4, r0, #0
	beq	.L893
.L889:
	mov	r0, r5
	movw	r1, #32800
	bl	__kmalloc
	cmp	r0, #0
	str	r0, [r4]
	beq	.L894
.L888:
	mov	r0, r4
	ldrd	r4, [sp]
	ldr	r6, [sp, #8]
	add	sp, sp, #12
	ldr	pc, [sp], #4
.L891:
	mov	r4, #16
	b	.L889
.L894:
	movw	r0, #:lower16:.LC30
	ldr	r1, .L895
	movt	r0, #:upper16:.LC30
	bl	printk
	mov	r0, r4
	mvn	r4, #11
	bl	kfree
	b	.L888
.L893:
	movw	r0, #:lower16:.LC29
	ldr	r1, .L895
	mvn	r4, #11
	movt	r0, #:upper16:.LC29
	bl	printk
	b	.L888
.L896:
	.align	2
.L895:
	.word	.LANCHOR2+264
	.fnend
	.size	f_audio_buffer_alloc, .-f_audio_buffer_alloc
	.section	.rodata.str1.4
	.align	2
.LC31:
	.ascii	"<3>%s: Unknown command\000"
	.align	2
.LC32:
	.ascii	"<3>%s: Unknown control request %02x.%02x v%04x i%04"
	.ascii	"x l%d\012\000"
	.align	2
.LC33:
	.ascii	"<3>%s: audio response failed on err %d\012\000"
	.align	2
.LC34:
	.ascii	"<3>%s: STALL\012\000"
	.text
	.align	2
	.syntax unified
	.arm
	.fpu softvfp
	.type	f_audio_setup, %function
f_audio_setup:
	.fnstart
	@ args = 0, pretend = 0, frame = 8
	@ frame_needed = 0, uses_anonymous_args = 0
	strd	r4, [sp, #-20]!
	.save {r4, r5, r6, r7, lr}
	mov	r4, r0
	strd	r6, [sp, #8]
	str	lr, [sp, #16]
	ldr	r3, [r0, #20]
	.pad #28
	sub	sp, sp, #28
	ldrb	r2, [r1]	@ zero_extendqisi2
	ldrh	ip, [r1, #4]	@ unaligned
	ldrh	lr, [r1, #2]	@ unaligned
	ldr	r7, [r3, #24]
	cmp	r2, #161
	ldrh	r6, [r1, #6]	@ unaligned
	ldr	r5, [r7, #4]
	beq	.L898
	bhi	.L899
	cmp	r2, #33
	bne	.L947
	mov	r2, r0
	ldrb	r0, [r1, #1]	@ zero_extendqisi2
	lsr	ip, ip, #8
	ldr	r3, [r2, #244]!
	and	r0, r0, #15
	cmp	r3, r2
	bne	.L908
.L904:
	movw	r3, #:lower16:f_audio_complete
	strb	r0, [r4, #260]
	movt	r3, #:upper16:f_audio_complete
	str	r3, [r5, #28]
	str	r4, [r5, #32]
.L909:
	ldrb	r3, [r5, #26]	@ zero_extendqisi2
	str	r6, [r5, #4]
	mov	r1, r5
	mov	r2, #32
	orr	r3, r3, #2
	strb	r3, [r5, #26]
	ldr	r3, [r7]
	ldr	r0, [r3, #4]
	ldr	r3, [r0, #8]
	ldr	r3, [r3, #16]
	blx	r3
	subs	r4, r0, #0
	blt	.L948
.L897:
	mov	r0, r4
	add	sp, sp, #28
	@ sp needed
	ldrd	r4, [sp]
	ldrd	r6, [sp, #8]
	add	sp, sp, #16
	ldr	pc, [sp], #4
.L905:
	ldr	r3, [r3]
	cmp	r3, r2
	beq	.L904
.L908:
	ldrb	r1, [r3, #16]	@ zero_extendqisi2
	cmp	r1, ip
	bne	.L905
	ldr	r2, [r3, #8]!
	cmp	r3, r2
	beq	.L904
	lsr	lr, lr, #8
	b	.L907
.L906:
	ldr	r2, [r2]
	cmp	r2, r3
	beq	.L904
.L907:
	ldrb	r1, [r2, #12]	@ zero_extendqisi2
	cmp	r1, lr
	bne	.L906
	str	r2, [r4, #264]
	b	.L904
.L947:
	cmp	r2, #34
	bne	.L902
	mov	r2, r0
	ldrb	r1, [r1, #1]	@ zero_extendqisi2
	lsr	lr, lr, #8
	ldr	r3, [r2, #252]!
	and	ip, ip, #127
	and	r1, r1, #15
	cmp	r3, r2
	beq	.L915
	ldrb	r0, [r3, #16]	@ zero_extendqisi2
	cmp	r0, ip
	beq	.L916
.L949:
	ldr	r3, [r3]
	cmp	r2, r3
	beq	.L915
	ldrb	r0, [r3, #16]	@ zero_extendqisi2
	cmp	r0, ip
	bne	.L949
.L916:
	ldr	r2, [r3, #8]!
	cmp	r2, r3
	beq	.L915
.L919:
	ldrb	r0, [r2, #12]	@ zero_extendqisi2
	cmp	r0, lr
	bne	.L950
	cmp	r1, #4
	bhi	.L920
	cmp	r1, #0
	beq	.L922
	movw	r3, #:lower16:audio_set_endpoint_complete
	strb	r1, [r4, #260]
	movt	r3, #:upper16:audio_set_endpoint_complete
	str	r2, [r4, #264]
	str	r3, [r5, #28]
	str	r4, [r5, #32]
	b	.L909
.L899:
	cmp	r2, #162
	bne	.L902
	ldr	r3, [r4, #252]!
	lsr	lr, lr, #8
	and	ip, ip, #127
	ldrb	r2, [r1, #1]	@ zero_extendqisi2
	cmp	r3, r4
	and	r2, r2, #15
	beq	.L915
	ldrb	r1, [r3, #16]	@ zero_extendqisi2
	cmp	r1, ip
	beq	.L924
.L951:
	ldr	r3, [r3]
	cmp	r4, r3
	beq	.L915
	ldrb	r1, [r3, #16]	@ zero_extendqisi2
	cmp	r1, ip
	bne	.L951
.L924:
	ldr	r1, [r3, #8]!
	cmp	r1, r3
	beq	.L915
.L927:
	ldrb	r0, [r1, #12]	@ zero_extendqisi2
	cmp	r0, lr
	bne	.L952
	sub	r3, r2, #1
	cmp	r3, #3
	bhi	.L915
	add	r3, r2, #4
	mov	r2, r6
	ldr	r0, [r5]
	ldr	r3, [r1, r3, lsl #2]
	add	r1, sp, #20
	str	r3, [sp, #20]
	bl	memcpy
	b	.L909
.L898:
	mov	r2, r0
	mvn	r0, #94
	ldr	r3, [r2, #244]!
	lsr	ip, ip, #8
	str	r0, [sp, #20]
	cmp	r2, r3
	bne	.L914
	b	.L910
.L911:
	ldr	r3, [r3]
	cmp	r2, r3
	beq	.L910
.L914:
	ldrb	r0, [r3, #16]	@ zero_extendqisi2
	cmp	r0, ip
	bne	.L911
	ldr	r0, [r3, #8]!
	cmp	r3, r0
	beq	.L910
	lsr	lr, lr, #8
	b	.L913
.L912:
	ldr	r0, [r0]
	cmp	r0, r3
	beq	.L910
.L913:
	ldrb	r2, [r0, #12]	@ zero_extendqisi2
	cmp	r2, lr
	bne	.L912
	ldr	r2, [r0, #40]
	cmp	r2, #0
	beq	.L912
	ldrb	r1, [r1, #1]	@ zero_extendqisi2
	and	r1, r1, #15
	blx	r2
	str	r0, [sp, #20]
.L910:
	movw	r3, #:lower16:f_audio_complete
	mov	r2, r6
	str	r4, [r5, #32]
	movt	r3, #:upper16:f_audio_complete
	add	r1, sp, #20
	ldr	r0, [r5]
	str	r3, [r5, #28]
	bl	memcpy
	b	.L909
.L920:
	cmp	r1, #5
	bne	.L922
.L915:
	movw	r0, #:lower16:.LC34
	ldr	r1, .L953
	mvn	r4, #94
	movt	r0, #:upper16:.LC34
	bl	printk
	b	.L897
.L950:
	ldr	r2, [r2]
	cmp	r2, r3
	bne	.L919
	b	.L915
.L952:
	ldr	r1, [r1]
	cmp	r3, r1
	bne	.L927
	b	.L915
.L922:
	movw	r0, #:lower16:.LC31
	ldr	r1, .L953+4
	movt	r0, #:upper16:.LC31
	bl	printk
	b	.L915
.L902:
	movw	r0, #:lower16:.LC32
	ldrb	r3, [r1, #1]	@ zero_extendqisi2
	str	lr, [sp]
	ldr	r1, .L953
	movt	r0, #:upper16:.LC32
	str	ip, [sp, #4]
	str	r6, [sp, #8]
	bl	printk
	b	.L915
.L948:
	movw	r0, #:lower16:.LC33
	ldr	r1, .L953
	mov	r2, r4
	movt	r0, #:upper16:.LC33
	bl	printk
	b	.L897
.L954:
	.align	2
.L953:
	.word	.LANCHOR2+312
	.word	.LANCHOR2+288
	.fnend
	.size	f_audio_setup, .-f_audio_setup
	.section	.rodata.str1.4
	.align	2
.LC35:
	.ascii	"<3>%s: %s is enabled in other device\012\000"
	.align	2
.LC36:
	.ascii	"<3>%s: Failed to alloc f_holder\012\000"
	.text
	.align	2
	.syntax unified
	.arm
	.fpu softvfp
	.type	android_enable_function, %function
android_enable_function:
	.fnstart
	@ args = 0, pretend = 0, frame = 8
	@ frame_needed = 0, uses_anonymous_args = 0
	strd	r4, [sp, #-36]!
	.save {r4, r5, r6, r7, r8, r9, r10, fp, lr}
	strd	r6, [sp, #8]
	strd	r8, [sp, #16]
	mov	r8, r1
	strd	r10, [sp, #24]
	str	lr, [sp, #32]
	ldr	r9, [r0, #4]
	.pad #12
	sub	sp, sp, #12
	ldr	r1, [r0, #8]
	ldr	r3, [r0, #48]
	ldr	fp, [r9], #4
	str	r3, [sp]
	ldr	r3, [r1]
	cmp	fp, #0
	str	r3, [sp, #4]
	beq	.L956
	movw	r10, #:lower16:.LC35
	mov	r5, r0
	mov	r7, r2
	movt	r10, #:upper16:.LC35
.L963:
	ldr	r4, [fp]
	mov	r0, r7
	mov	r1, r4
	bl	strcmp
	subs	r6, r0, #0
	bne	.L957
	ldr	r0, [fp, #20]
	cmp	r0, r5
	cmpne	r0, #0
	bne	.L971
	movw	r3, #:lower16:kmalloc_caches
	movt	r3, #:upper16:kmalloc_caches
	ldr	r0, [r3, #24]
	cmp	r0, #0
	beq	.L964
	movw	r1, #32976
	bl	kmem_cache_alloc
	cmp	r0, #0
	beq	.L972
.L959:
	mov	r3, r0
	str	r5, [fp, #20]
	add	ip, r8, #112
	str	fp, [r3], #4
	ldr	r1, [r8, #116]
	str	r3, [r8, #116]
	str	ip, [r0, #4]
	str	r1, [r0, #8]
	str	r3, [r1]
	ldr	r3, [sp]
	ldr	r8, [fp]
	ldr	r5, [r3, #44]
	cmp	r5, #0
	ble	.L955
	add	r5, r5, r5, lsl #2
	add	r4, r3, #11
	add	r5, r4, r5, lsl #1
	b	.L962
.L961:
	cmp	r5, r4
	beq	.L955
.L962:
	mov	r1, r4
	mov	r0, r8
	bl	strcmp
	cmp	r0, #0
	add	r4, r4, #10
	bne	.L961
	ldr	r2, [sp, #4]
	mov	r3, #1
	mov	r6, r0
	strb	r3, [r2, #386]
.L955:
	mov	r0, r6
	add	sp, sp, #12
	@ sp needed
	ldrd	r4, [sp]
	ldrd	r6, [sp, #8]
	ldrd	r8, [sp, #16]
	ldrd	r10, [sp, #24]
	add	sp, sp, #32
	ldr	pc, [sp], #4
.L971:
	ldr	r1, .L973
	mov	r2, r4
	mov	r0, r10
	bl	printk
.L957:
	ldr	fp, [r9], #4
	cmp	fp, #0
	bne	.L963
.L956:
	mvn	r6, #21
	b	.L955
.L964:
	mov	r0, #16
	b	.L959
.L972:
	movw	r0, #:lower16:.LC36
	ldr	r1, .L973
	mvn	r6, #11
	movt	r0, #:upper16:.LC36
	bl	printk
	b	.L955
.L974:
	.align	2
.L973:
	.word	.LANCHOR2+328
	.fnend
	.size	android_enable_function, .-android_enable_function
	.section	.rodata.str1.4
	.align	2
.LC37:
	.ascii	"<3>acc_complete_set_string, err %d\012\000"
	.align	2
.LC38:
	.ascii	"<3>unknown accessory string index %d\012\000"
	.text
	.align	2
	.syntax unified
	.arm
	.fpu softvfp
	.type	acc_complete_set_string, %function
acc_complete_set_string:
	.fnstart
	@ args = 0, pretend = 0, frame = 0
	@ frame_needed = 0, uses_anonymous_args = 0
	strd	r4, [sp, #-24]!
	.save {r4, r5, r6, r7, r8, lr}
	strd	r6, [sp, #8]
	mov	r6, r1
	str	r8, [sp, #16]
	str	lr, [sp, #20]
	ldr	r1, [r1, #44]
	ldr	r0, [r0]
	ldr	r5, [r6, #48]
	cmp	r1, #0
	movwne	r0, #:lower16:.LC37
	movtne	r0, #:upper16:.LC37
	bne	.L990
	ldr	r1, [r0, #1632]
	cmp	r1, #5
	ldrls	pc, [pc, r1, asl #2]
	b	.L977
.L979:
	.word	.L984
	.word	.L983
	.word	.L982
	.word	.L981
	.word	.L980
	.word	.L978
.L978:
	add	r7, r0, #1360
	add	r7, r7, #13
.L985:
	cmp	r7, #0
	beq	.L977
	add	r4, r0, #80
	mov	r0, r4
	bl	_raw_spin_lock_irqsave
	cmp	r5, #255
	mov	r3, r0
	ldr	r1, [r6]
	movge	r5, #255
	mov	r0, r7
	mov	r2, r5
	mov	r6, r3
	bl	memcpy
	mov	r3, #0
	mov	r1, r6
	mov	r0, r4
	strb	r3, [r7, r5]
	ldrd	r4, [sp]
	ldrd	r6, [sp, #8]
	ldr	r8, [sp, #16]
	ldr	lr, [sp, #20]
	add	sp, sp, #24
	b	_raw_spin_unlock_irqrestore
.L984:
	add	r7, r0, #93
	b	.L985
.L983:
	add	r7, r0, #348
	add	r7, r7, #1
	b	.L985
.L982:
	add	r7, r0, #604
	add	r7, r7, #1
	b	.L985
.L981:
	add	r7, r0, #860
	add	r7, r7, #1
	b	.L985
.L980:
	add	r7, r0, #1104
	add	r7, r7, #13
	b	.L985
.L977:
	movw	r0, #:lower16:.LC38
	movt	r0, #:upper16:.LC38
.L990:
	ldrd	r4, [sp]
	ldrd	r6, [sp, #8]
	ldr	r8, [sp, #16]
	ldr	lr, [sp, #20]
	add	sp, sp, #24
	b	printk
	.fnend
	.size	acc_complete_set_string, .-acc_complete_set_string
	.section	.rodata.str1.4
	.align	2
.LC39:
	.ascii	"<6>acc_release\012\000"
	.align	2
.LC40:
	.ascii	"drivers/usb/gadget/f_accessory.c\000"
	.section	.text.unlikely
	.align	2
	.syntax unified
	.arm
	.fpu softvfp
	.type	acc_release, %function
acc_release:
	.fnstart
	@ args = 0, pretend = 0, frame = 0
	@ frame_needed = 0, uses_anonymous_args = 0
	movw	r0, #:lower16:.LC39
	push	{r4, lr}
	.save {r4, lr}
	movt	r0, #:upper16:.LC39
	bl	printk
	movw	r2, #:lower16:.LANCHOR0
	movt	r2, #:upper16:.LANCHOR0
	ldr	r3, [r2, #824]
	add	r3, r3, #1632
	add	r3, r3, #12
	.syntax divided
@ 38 "/run/media/tfonda/HDD/android/bacon/android_kernel_oppo_msm8974/arch/arm/include/asm/cmpxchg.h" 1
	dmb
@ 0 "" 2
@ 111 "/run/media/tfonda/HDD/android/bacon/android_kernel_oppo_msm8974/arch/arm/include/asm/processor.h" 1
	pld	[r3]
@ 0 "" 2
	.arm
	.syntax unified
	mov	r1, #0
	.syntax divided
@ 54 "/run/media/tfonda/HDD/android/bacon/android_kernel_oppo_msm8974/arch/arm/include/asm/cmpxchg.h" 1
	@	__xchg4
1:	ldrex	r0, [r3]
	strex	ip, r1, [r3]
	teq	ip, #0
	bne	1b
@ 0 "" 2
@ 100 "/run/media/tfonda/HDD/android/bacon/android_kernel_oppo_msm8974/arch/arm/include/asm/cmpxchg.h" 1
	dmb
@ 0 "" 2
	.arm
	.syntax unified
	cmp	r0, r1
	mov	r4, r2
	bne	.L992
	movw	r0, #:lower16:.LC40
	movw	r1, #799
	movt	r0, #:upper16:.LC40
	bl	warn_slowpath_null
.L992:
	ldr	r3, [r4, #824]
	mov	r0, #0
	ldrb	r2, [r3, #92]	@ zero_extendqisi2
	bfc	r2, #1, #1
	strb	r2, [r3, #92]
	pop	{r4, pc}
	.fnend
	.size	acc_release, .-acc_release
	.section	.rodata.str1.4
	.align	2
.LC41:
	.ascii	"<6>acc_open\012\000"
	.section	.text.unlikely
	.align	2
	.syntax unified
	.arm
	.fpu softvfp
	.type	acc_open, %function
acc_open:
	.fnstart
	@ args = 0, pretend = 0, frame = 0
	@ frame_needed = 0, uses_anonymous_args = 0
	movw	r0, #:lower16:.LC41
	push	{r4, lr}
	.save {r4, lr}
	movt	r0, #:upper16:.LC41
	mov	r4, r1
	bl	printk
	movw	r2, #:lower16:.LANCHOR0
	movt	r2, #:upper16:.LANCHOR0
	ldr	r3, [r2, #824]
	add	r3, r3, #1632
	add	r3, r3, #12
	.syntax divided
@ 38 "/run/media/tfonda/HDD/android/bacon/android_kernel_oppo_msm8974/arch/arm/include/asm/cmpxchg.h" 1
	dmb
@ 0 "" 2
@ 111 "/run/media/tfonda/HDD/android/bacon/android_kernel_oppo_msm8974/arch/arm/include/asm/processor.h" 1
	pld	[r3]
@ 0 "" 2
	.arm
	.syntax unified
	mov	r0, #1
	.syntax divided
@ 54 "/run/media/tfonda/HDD/android/bacon/android_kernel_oppo_msm8974/arch/arm/include/asm/cmpxchg.h" 1
	@	__xchg4
1:	ldrex	r1, [r3]
	strex	ip, r0, [r3]
	teq	ip, #0
	bne	1b
@ 0 "" 2
@ 100 "/run/media/tfonda/HDD/android/bacon/android_kernel_oppo_msm8974/arch/arm/include/asm/cmpxchg.h" 1
	dmb
@ 0 "" 2
	.arm
	.syntax unified
	cmp	r1, #0
	bne	.L996
	ldr	r3, [r2, #824]
	mov	r0, r1
	ldrb	r2, [r3, #92]	@ zero_extendqisi2
	bfi	r2, r1, #1, #1
	strb	r2, [r3, #92]
	str	r3, [r4, #132]
	pop	{r4, pc}
.L996:
	mvn	r0, #15
	pop	{r4, pc}
	.fnend
	.size	acc_open, .-acc_open
	.section	.rodata.str1.4
	.align	2
.LC42:
	.ascii	"<6>%s: Close rndis QC file\000"
	.align	2
.LC43:
	.ascii	"<3>%s: rndis_qc_dev not present\012\000"
	.section	.text.unlikely
	.align	2
	.syntax unified
	.arm
	.fpu softvfp
	.type	rndis_qc_release_dev, %function
rndis_qc_release_dev:
	.fnstart
	@ args = 0, pretend = 0, frame = 0
	@ frame_needed = 0, uses_anonymous_args = 0
	push	{r4, r5, r6, lr}
	.save {r4, r5, r6, lr}
	movw	r0, #:lower16:.LC42
	movw	r4, #:lower16:.LANCHOR0
	ldr	r1, .L1002
	movt	r0, #:upper16:.LC42
	movt	r4, #:upper16:.LANCHOR0
	bl	printk
	add	r0, r4, #828
	bl	_raw_spin_lock_irqsave
	ldr	r3, [r4, #832]
	mov	r5, r0
	cmp	r3, #0
	bne	.L999
	movw	r0, #:lower16:.LC43
	ldr	r1, .L1002
	movt	r0, #:upper16:.LC43
	bl	printk
	add	r0, r4, #828
	mov	r1, r5
	bl	_raw_spin_unlock_irqrestore
	mvn	r0, #18
	pop	{r4, r5, r6, pc}
.L999:
	add	r2, r3, #144
	.syntax divided
@ 83 "/run/media/tfonda/HDD/android/bacon/android_kernel_oppo_msm8974/arch/arm/include/asm/atomic.h" 1
	@ atomic_sub
1:	ldrex	r1, [r2]
	sub	r1, r1, #1
	strex	r0, r1, [r2]
	teq	r0, #0
	bne	1b
@ 0 "" 2
	.arm
	.syntax unified
	add	r0, r4, #828
	mov	r1, r5
	bl	_raw_spin_unlock_irqrestore
	mov	r0, #0
	pop	{r4, r5, r6, pc}
.L1003:
	.align	2
.L1002:
	.word	.LANCHOR2+352
	.fnend
	.size	rndis_qc_release_dev, .-rndis_qc_release_dev
	.section	.rodata.str1.4
	.align	2
.LC44:
	.ascii	"<6>%s: Open rndis QC driver\012\000"
	.align	2
.LC45:
	.ascii	"<3>%s: rndis_qc_dev not created yet\012\000"
	.align	2
.LC46:
	.ascii	"<6>%s: rndis QC file opened\012\000"
	.align	2
.LC47:
	.ascii	"<3>%s: Already opened\012\000"
	.section	.text.unlikely
	.align	2
	.syntax unified
	.arm
	.fpu softvfp
	.type	rndis_qc_open_dev, %function
rndis_qc_open_dev:
	.fnstart
	@ args = 0, pretend = 0, frame = 0
	@ frame_needed = 0, uses_anonymous_args = 0
	movw	r0, #:lower16:.LC44
	push	{r4, lr}
	.save {r4, lr}
	movt	r0, #:upper16:.LC44
	mov	r4, r1
	ldr	r1, .L1009
	bl	printk
	movw	r0, #:lower16:.LANCHOR0
	movt	r0, #:upper16:.LANCHOR0
	ldr	r3, [r0, #832]
	cmp	r3, #0
	bne	.L1005
	movw	r0, #:lower16:.LC45
	ldr	r1, .L1009
	movt	r0, #:upper16:.LC45
	bl	printk
	mvn	r0, #18
	pop	{r4, pc}
.L1005:
	add	r2, r3, #144
	.syntax divided
@ 60 "/run/media/tfonda/HDD/android/bacon/android_kernel_oppo_msm8974/arch/arm/include/asm/atomic.h" 1
	dmb
@ 0 "" 2
@ 111 "/run/media/tfonda/HDD/android/bacon/android_kernel_oppo_msm8974/arch/arm/include/asm/processor.h" 1
	pld	[r2]
@ 0 "" 2
@ 63 "/run/media/tfonda/HDD/android/bacon/android_kernel_oppo_msm8974/arch/arm/include/asm/atomic.h" 1
	@ atomic_add_return
1:	ldrex	r1, [r2]
	add	r1, r1, #1
	strex	ip, r1, [r2]
	teq	ip, #0
	bne	1b
@ 0 "" 2
@ 73 "/run/media/tfonda/HDD/android/bacon/android_kernel_oppo_msm8974/arch/arm/include/asm/atomic.h" 1
	dmb
@ 0 "" 2
	.arm
	.syntax unified
	cmp	r1, #1
	bne	.L1007
	ldr	r3, [r0, #832]
	movw	r0, #:lower16:.LC46
	ldr	r1, .L1009
	movt	r0, #:upper16:.LC46
	str	r3, [r4, #132]
	bl	printk
	mov	r0, #0
	pop	{r4, pc}
.L1007:
	.syntax divided
@ 83 "/run/media/tfonda/HDD/android/bacon/android_kernel_oppo_msm8974/arch/arm/include/asm/atomic.h" 1
	@ atomic_sub
1:	ldrex	r1, [r2]
	sub	r1, r1, #1
	strex	r0, r1, [r2]
	teq	r0, #0
	bne	1b
@ 0 "" 2
	.arm
	.syntax unified
	movw	r0, #:lower16:.LC47
	ldr	r1, .L1009
	movt	r0, #:upper16:.LC47
	bl	printk
	mvn	r0, #15
	pop	{r4, pc}
.L1010:
	.align	2
.L1009:
	.word	.LANCHOR2+376
	.fnend
	.size	rndis_qc_open_dev, .-rndis_qc_open_dev
	.section	.rodata.str1.4
	.align	2
.LC48:
	.ascii	"<6>mtp_release\012\000"
	.section	.text.unlikely
	.align	2
	.syntax unified
	.arm
	.fpu softvfp
	.type	mtp_release, %function
mtp_release:
	.fnstart
	@ args = 0, pretend = 0, frame = 0
	@ frame_needed = 0, uses_anonymous_args = 0
	movw	r0, #:lower16:.LC48
	push	{r4, lr}
	.save {r4, lr}
	movt	r0, #:upper16:.LC48
	bl	printk
	movw	r3, #:lower16:.LANCHOR0
	movt	r3, #:upper16:.LANCHOR0
	ldr	r3, [r3, #836]
	add	r2, r3, #100
	.syntax divided
@ 83 "/run/media/tfonda/HDD/android/bacon/android_kernel_oppo_msm8974/arch/arm/include/asm/atomic.h" 1
	@ atomic_sub
1:	ldrex	r1, [r2]
	sub	r1, r1, #1
	strex	r0, r1, [r2]
	teq	r0, #0
	bne	1b
@ 0 "" 2
	.arm
	.syntax unified
	mov	r0, #0
	pop	{r4, pc}
	.fnend
	.size	mtp_release, .-mtp_release
	.section	.rodata.str1.4
	.align	2
.LC49:
	.ascii	"<6>mtp_open\012\000"
	.section	.text.unlikely
	.align	2
	.syntax unified
	.arm
	.fpu softvfp
	.type	mtp_open, %function
mtp_open:
	.fnstart
	@ args = 0, pretend = 0, frame = 0
	@ frame_needed = 0, uses_anonymous_args = 0
	movw	r0, #:lower16:.LC49
	push	{r4, lr}
	.save {r4, lr}
	movt	r0, #:upper16:.LC49
	mov	r4, r1
	bl	printk
	movw	r0, #:lower16:.LANCHOR0
	movt	r0, #:upper16:.LANCHOR0
	ldr	r3, [r0, #836]
	add	r2, r3, #100
	.syntax divided
@ 60 "/run/media/tfonda/HDD/android/bacon/android_kernel_oppo_msm8974/arch/arm/include/asm/atomic.h" 1
	dmb
@ 0 "" 2
@ 111 "/run/media/tfonda/HDD/android/bacon/android_kernel_oppo_msm8974/arch/arm/include/asm/processor.h" 1
	pld	[r2]
@ 0 "" 2
@ 63 "/run/media/tfonda/HDD/android/bacon/android_kernel_oppo_msm8974/arch/arm/include/asm/atomic.h" 1
	@ atomic_add_return
1:	ldrex	r1, [r2]
	add	r1, r1, #1
	strex	ip, r1, [r2]
	teq	ip, #0
	bne	1b
@ 0 "" 2
@ 73 "/run/media/tfonda/HDD/android/bacon/android_kernel_oppo_msm8974/arch/arm/include/asm/atomic.h" 1
	dmb
@ 0 "" 2
	.arm
	.syntax unified
	cmp	r1, #1
	bne	.L1014
	ldr	r3, [r0, #836]
	ldr	r2, [r3, #96]
	cmp	r2, #0
	strne	r1, [r3, #96]
	b	.L1016
.L1014:
	.syntax divided
@ 83 "/run/media/tfonda/HDD/android/bacon/android_kernel_oppo_msm8974/arch/arm/include/asm/atomic.h" 1
	@ atomic_sub
1:	ldrex	r1, [r2]
	sub	r1, r1, #1
	strex	r0, r1, [r2]
	teq	r0, #0
	bne	1b
@ 0 "" 2
	.arm
	.syntax unified
	mvn	r0, #15
	pop	{r4, pc}
.L1016:
	mov	r0, #0
	str	r3, [r4, #132]
	pop	{r4, pc}
	.fnend
	.size	mtp_open, .-mtp_open
	.section	.rodata.str1.4
	.align	2
.LC50:
	.ascii	"<3>CCID notify ep error %d\012\000"
	.text
	.align	2
	.syntax unified
	.arm
	.fpu softvfp
	.type	ccid_notify_complete, %function
ccid_notify_complete:
	.fnstart
	@ args = 0, pretend = 0, frame = 0
	@ frame_needed = 0, uses_anonymous_args = 0
	@ link register save eliminated.
	ldr	r1, [r1, #44]
	cmp	r1, #0
	bne	.L1027
.L1019:
	bx	lr
.L1027:
	add	r3, r1, #108
	bics	r3, r3, #4
	beq	.L1019
	movw	r0, #:lower16:.LC50
	movt	r0, #:upper16:.LC50
	b	printk
	.fnend
	.size	ccid_notify_complete, .-ccid_notify_complete
	.section	.rodata.str1.4
	.align	2
.LC51:
	.ascii	"<3>%s: ctrl resp queue empty\000"
	.align	2
.LC52:
	.ascii	"gps ep0 enqueue err %d\012\000"
	.text
	.align	2
	.syntax unified
	.arm
	.fpu softvfp
	.type	gps_setup, %function
gps_setup:
	.fnstart
	@ args = 0, pretend = 0, frame = 0
	@ frame_needed = 0, uses_anonymous_args = 0
	strd	r4, [sp, #-32]!
	.save {r4, r5, r6, r7, r8, r9, r10, lr}
	strd	r6, [sp, #8]
	strd	r8, [sp, #16]
	str	r10, [sp, #24]
	str	lr, [sp, #28]
	ldr	r3, [r0, #112]
	ldr	r6, [r0, #120]
	ldrh	r2, [r1, #2]	@ unaligned
	ldrh	r7, [r1, #6]	@ unaligned
	cmp	r3, #0
	ldr	r5, [r6, #4]
	beq	.L1035
	ldrh	r3, [r1]	@ unaligned
	movw	r1, #8482
	mov	r4, r0
	rev16	r3, r3
	uxth	r3, r3
	cmp	r3, r1
	beq	.L1030
	movw	r1, #41217
	cmp	r3, r1
	beq	.L1031
	cmp	r3, #8448
	beq	.L1039
.L1037:
	mvn	r4, #94
.L1028:
	mov	r0, r4
	ldrd	r4, [sp]
	ldrd	r6, [sp, #8]
	ldrd	r8, [sp, #16]
	ldr	r10, [sp, #24]
	add	sp, sp, #28
	ldr	pc, [sp], #4
.L1030:
	ldr	r3, [r0, #92]
	cmp	r3, #0
	beq	.L1040
	ldrb	r1, [r0, #104]	@ zero_extendqisi2
	mov	r8, #0
	blx	r3
	subs	r7, r7, r8
	movne	r7, #1
	b	.L1032
.L1039:
	movw	r3, #:lower16:gps_cmd_complete
	mov	r8, r7
	str	r0, [r5, #32]
	movt	r3, #:upper16:gps_cmd_complete
	mov	r7, #0
	str	r3, [r5, #28]
.L1032:
	ldrb	r3, [r5, #26]	@ zero_extendqisi2
	str	r8, [r5, #4]
	mov	r1, r5
	mov	r2, #32
	bfi	r3, r7, #1, #1
	strb	r3, [r5, #26]
	ldr	r3, [r6]
	ldr	r0, [r3, #4]
	ldr	r3, [r0, #8]
	ldr	r3, [r3, #16]
	blx	r3
	subs	r4, r0, #0
	bge	.L1028
	ldr	r0, [r6]
	movw	r1, #:lower16:.LC52
	mov	r2, r4
	movt	r1, #:upper16:.LC52
	add	r0, r0, #32
	bl	dev_err
	b	.L1028
.L1031:
	cmp	r2, #0
	bne	.L1037
	add	r8, r0, #124
	mov	r0, r8
	bl	_raw_spin_lock
	ldr	r9, [r4, #136]!
	cmp	r9, r4
	beq	.L1041
	ldrd	r2, [r9]
	mov	ip, #256
	mov	r1, #512
	mov	r0, r8
	mov	r4, r9
	str	r3, [r2, #4]
	str	r2, [r3]
	str	ip, [r9]
	str	r1, [r9, #4]
	bl	_raw_spin_unlock
	ldmdb	r9, {r1, r8}
	ldr	r0, [r5]
	cmp	r7, r8
	movcc	r8, r7
	mov	r2, r8
	bl	memcpy
	ldr	r0, [r4, #-8]!
	bl	kfree
	mov	r0, r4
	bl	kfree
	cmp	r8, r7
	movge	r7, #0
	movlt	r7, #1
	b	.L1032
.L1040:
	subs	r7, r7, #0
	mov	r8, r3
	movne	r7, #1
	b	.L1032
.L1035:
	mvn	r4, #106
	b	.L1028
.L1041:
	movw	r0, #:lower16:.LC51
	ldr	r1, .L1042
	mvn	r4, #94
	movt	r0, #:upper16:.LC51
	bl	printk
	mov	r0, r8
	bl	_raw_spin_unlock
	b	.L1028
.L1043:
	.align	2
.L1042:
	.word	.LANCHOR2+396
	.fnend
	.size	gps_setup, .-gps_setup
	.section	.rodata.str1.4
	.align	2
.LC53:
	.ascii	"<3>gps notify ep error %d\012\000"
	.text
	.align	2
	.syntax unified
	.arm
	.fpu softvfp
	.type	gps_notify_complete, %function
gps_notify_complete:
	.fnstart
	@ args = 0, pretend = 0, frame = 0
	@ frame_needed = 0, uses_anonymous_args = 0
	strd	r4, [sp, #-24]!
	.save {r4, r5, r6, r7, r8, lr}
	mov	r4, r1
	strd	r6, [sp, #8]
	str	r8, [sp, #16]
	str	lr, [sp, #20]
	ldr	r1, [r1, #44]
	ldr	r5, [r4, #32]
	cmn	r1, #104
	beq	.L1045
	cmp	r1, #0
	beq	.L1046
	cmn	r1, #108
	bne	.L1047
.L1045:
	mov	r3, #0
	str	r3, [r5, #144]
.L1044:
	ldrd	r4, [sp]
	ldrd	r6, [sp, #8]
	ldr	r8, [sp, #16]
	add	sp, sp, #20
	ldr	pc, [sp], #4
.L1047:
	movw	r0, #:lower16:.LC53
	movt	r0, #:upper16:.LC53
	bl	printk
.L1046:
	ldr	r3, [r5, #116]
	cmp	r3, #0
	beq	.L1044
	add	r6, r5, #144
	.syntax divided
@ 99 "/run/media/tfonda/HDD/android/bacon/android_kernel_oppo_msm8974/arch/arm/include/asm/atomic.h" 1
	dmb
@ 0 "" 2
@ 111 "/run/media/tfonda/HDD/android/bacon/android_kernel_oppo_msm8974/arch/arm/include/asm/processor.h" 1
	pld	[r6]
@ 0 "" 2
@ 102 "/run/media/tfonda/HDD/android/bacon/android_kernel_oppo_msm8974/arch/arm/include/asm/atomic.h" 1
	@ atomic_sub_return
1:	ldrex	r3, [r6]
	sub	r3, r3, #1
	strex	r2, r3, [r6]
	teq	r2, #0
	bne	1b
@ 0 "" 2
@ 112 "/run/media/tfonda/HDD/android/bacon/android_kernel_oppo_msm8974/arch/arm/include/asm/atomic.h" 1
	dmb
@ 0 "" 2
	.arm
	.syntax unified
	cmp	r3, #0
	beq	.L1044
	ldr	r0, [r5, #128]
	mov	r1, r4
	mov	r2, #32
	ldr	r3, [r0, #8]
	ldr	r3, [r3, #16]
	blx	r3
	cmp	r0, #0
	beq	.L1044
	add	r7, r5, #124
	mov	r0, r7
	bl	_raw_spin_lock_irqsave
	ldr	r3, [r5, #136]
	add	r2, r5, #136
	mov	r4, r0
	cmp	r3, r2
	beq	.L1051
	.syntax divided
@ 83 "/run/media/tfonda/HDD/android/bacon/android_kernel_oppo_msm8974/arch/arm/include/asm/atomic.h" 1
	@ atomic_sub
1:	ldrex	r2, [r6]
	sub	r2, r2, #1
	strex	r1, r2, [r6]
	teq	r1, #0
	bne	1b
@ 0 "" 2
	.arm
	.syntax unified
	ldm	r3, {r1, r2}
	mov	ip, #256
	mov	r0, #512
	mov	r5, r3
	str	r2, [r1, #4]
	str	r1, [r2]
	str	ip, [r3]
	str	r0, [r3, #4]
	ldr	r0, [r5, #-8]!
	bl	kfree
	mov	r0, r5
	bl	kfree
.L1051:
	mov	r1, r4
	mov	r0, r7
	ldrd	r4, [sp]
	ldrd	r6, [sp, #8]
	ldr	r8, [sp, #16]
	ldr	lr, [sp, #20]
	add	sp, sp, #24
	b	_raw_spin_unlock_irqrestore
	.fnend
	.size	gps_notify_complete, .-gps_notify_complete
	.section	.rodata.str1.4
	.align	2
.LC54:
	.ascii	"<3>ctrl resp queue empty  req%02x.%02x v%04x i%04x "
	.ascii	"l%d\012\000"
	.align	2
.LC55:
	.ascii	"rmnet ep0 enqueue err %d\012\000"
	.text
	.align	2
	.syntax unified
	.arm
	.fpu softvfp
	.type	frmnet_setup, %function
frmnet_setup:
	.fnstart
	@ args = 0, pretend = 0, frame = 0
	@ frame_needed = 0, uses_anonymous_args = 0
	strd	r4, [sp, #-36]!
	.save {r4, r5, r6, r7, r8, r9, r10, fp, lr}
	strd	r6, [sp, #8]
	strd	r8, [sp, #16]
	strd	r10, [sp, #24]
	str	lr, [sp, #32]
	ldr	r3, [r0, #112]
	.pad #12
	sub	sp, sp, #12
	ldr	r7, [r0, #120]
	ldrh	r9, [r1, #2]	@ unaligned
	ldrh	r8, [r1, #6]	@ unaligned
	cmp	r3, #0
	ldr	r6, [r7, #4]
	beq	.L1072
	ldrh	ip, [r1]	@ unaligned
	movw	r3, #8482
	mov	r4, r0
	mov	r5, r1
	rev16	ip, ip
	uxth	ip, ip
	cmp	ip, r3
	beq	.L1067
	movw	r3, #41217
	cmp	ip, r3
	beq	.L1068
	cmp	ip, #8448
	beq	.L1076
.L1074:
	mvn	r4, #94
.L1065:
	mov	r0, r4
	add	sp, sp, #12
	@ sp needed
	ldrd	r4, [sp]
	ldrd	r6, [sp, #8]
	ldrd	r8, [sp, #16]
	ldrd	r10, [sp, #24]
	add	sp, sp, #32
	ldr	pc, [sp], #4
.L1067:
	ldr	r10, [r0, #92]
	cmp	r10, #0
	beq	.L1077
	ldrb	r1, [r0, #108]	@ zero_extendqisi2
	movw	r3, #:lower16:.LANCHOR0
	mov	r2, r9
	movt	r3, #:upper16:.LANCHOR0
	mov	r5, #0
	add	r1, r1, r1, lsl #1
	add	r3, r3, r1, lsl #3
	ldrb	r1, [r3, #232]	@ zero_extendqisi2
	blx	r10
	subs	r8, r8, r5
	movne	r8, #1
	b	.L1069
.L1076:
	movw	r3, #:lower16:frmnet_cmd_complete
	mov	r5, r8
	str	r0, [r6, #32]
	movt	r3, #:upper16:frmnet_cmd_complete
	mov	r8, #0
	str	r3, [r6, #28]
.L1069:
	ldrb	r3, [r6, #26]	@ zero_extendqisi2
	str	r5, [r6, #4]
	mov	r1, r6
	mov	r2, #32
	bfi	r3, r8, #1, #1
	strb	r3, [r6, #26]
	ldr	r3, [r7]
	ldr	r0, [r3, #4]
	ldr	r3, [r0, #8]
	ldr	r3, [r3, #16]
	blx	r3
	subs	r4, r0, #0
	bge	.L1065
	ldr	r0, [r7]
	movw	r1, #:lower16:.LC55
	mov	r2, r4
	movt	r1, #:upper16:.LC55
	add	r0, r0, #32
	bl	dev_err
	b	.L1065
.L1068:
	cmp	r9, #0
	bne	.L1074
	add	r10, r0, #124
	ldrh	fp, [r1, #4]	@ unaligned
	mov	r0, r10
	bl	_raw_spin_lock
	mov	r0, r4
	ldr	r4, [r0, #136]!
	cmp	r4, r0
	beq	.L1078
	ldrd	r2, [r4]
	mov	ip, #256
	mov	r1, #512
	mov	r0, r10
	mov	r9, r4
	str	r3, [r2, #4]
	str	r2, [r3]
	str	ip, [r4]
	str	r1, [r4, #4]
	bl	_raw_spin_unlock
	ldmdb	r4, {r1, r5}
	ldr	r0, [r6]
	cmp	r8, r5
	movcc	r5, r8
	mov	r2, r5
	bl	memcpy
	ldr	r0, [r9, #-8]!
	bl	kfree
	mov	r0, r9
	bl	kfree
	cmp	r5, r8
	movge	r8, #0
	movlt	r8, #1
	b	.L1069
.L1077:
	subs	r8, r8, #0
	mov	r5, r10
	movne	r8, #1
	b	.L1069
.L1072:
	mvn	r4, #106
	b	.L1065
.L1078:
	movw	r0, #:lower16:.LC54
	mov	r3, r9
	str	fp, [sp]
	movt	r0, #:upper16:.LC54
	str	r8, [sp, #4]
	ldrb	r2, [r5, #1]	@ zero_extendqisi2
	ldrb	r1, [r5]	@ zero_extendqisi2
	mvn	r4, #94
	bl	printk
	mov	r0, r10
	bl	_raw_spin_unlock
	b	.L1065
	.fnend
	.size	frmnet_setup, .-frmnet_setup
	.section	.rodata.str1.4
	.align	2
.LC56:
	.ascii	"<3>rmnet notify ep error %d\012\000"
	.align	2
.LC57:
	.ascii	"<3>%s: Invalid notify_count=%lu to decrement\012\000"
	.text
	.align	2
	.syntax unified
	.arm
	.fpu softvfp
	.type	frmnet_notify_complete, %function
frmnet_notify_complete:
	.fnstart
	@ args = 0, pretend = 0, frame = 0
	@ frame_needed = 0, uses_anonymous_args = 0
	strd	r4, [sp, #-16]!
	.save {r4, r5, r6, lr}
	mov	r4, r1
	str	r6, [sp, #8]
	str	lr, [sp, #12]
	ldr	r1, [r1, #44]
	ldr	r6, [r4, #32]
	cmp	r1, #0
	bne	.L1098
.L1080:
	ldr	r3, [r6, #116]
	cmp	r3, #0
	bne	.L1099
.L1079:
	ldrd	r4, [sp]
	ldr	r6, [sp, #8]
	add	sp, sp, #12
	ldr	pc, [sp], #4
.L1098:
	bgt	.L1081
	add	r3, r1, #108
	bics	r5, r3, #4
	beq	.L1100
.L1081:
	movw	r0, #:lower16:.LC56
	movt	r0, #:upper16:.LC56
	bl	printk
	b	.L1080
.L1100:
	add	r4, r6, #124
	mov	r0, r4
	bl	_raw_spin_lock_irqsave
	mov	r1, r0
	mov	r0, r4
	str	r5, [r6, #144]
.L1096:
	ldrd	r4, [sp]
	ldr	r6, [sp, #8]
	ldr	lr, [sp, #12]
	add	sp, sp, #16
	b	_raw_spin_unlock_irqrestore
.L1099:
	add	r5, r6, #124
	mov	r0, r5
	bl	_raw_spin_lock_irqsave
	ldr	r3, [r6, #144]
	mov	r1, r0
	cmp	r3, #0
	beq	.L1097
	sub	r3, r3, #1
	mov	r0, r5
	cmp	r3, #0
	str	r3, [r6, #144]
	beq	.L1096
	bl	_raw_spin_unlock_irqrestore
	ldr	r0, [r6, #128]
	mov	r1, r4
	mov	r2, #32
	ldr	r3, [r0, #8]
	ldr	r3, [r3, #16]
	blx	r3
	cmp	r0, #0
	beq	.L1079
	mov	r0, r5
	bl	_raw_spin_lock_irqsave
	mov	r2, r6
	mov	r4, r0
	ldr	r3, [r2, #136]!
	cmp	r3, r2
	beq	.L1087
	ldr	r2, [r6, #144]
	cmp	r2, #0
	beq	.L1088
	sub	r2, r2, #1
	mov	ip, #256
	mov	r0, #512
	str	r2, [r6, #144]
	ldm	r3, {r1, r2}
	mov	r6, r3
	str	r2, [r1, #4]
	str	r1, [r2]
	str	ip, [r3]
	str	r0, [r3, #4]
	ldr	r0, [r6, #-8]!
	bl	kfree
	mov	r0, r6
	bl	kfree
.L1087:
	mov	r1, r4
.L1097:
	mov	r0, r5
	b	.L1096
.L1088:
	movw	r0, #:lower16:.LC57
	ldr	r1, .L1101
	movt	r0, #:upper16:.LC57
	bl	printk
	b	.L1087
.L1102:
	.align	2
.L1101:
	.word	.LANCHOR2+408
	.fnend
	.size	frmnet_notify_complete, .-frmnet_notify_complete
	.section	.rodata.str1.4
	.align	2
.LC58:
	.ascii	"<3>%s: response queue error: %d\000"
	.text
	.align	2
	.syntax unified
	.arm
	.fpu softvfp
	.type	mbim_function_ctrlrequest, %function
mbim_function_ctrlrequest:
	.fnstart
	@ args = 0, pretend = 0, frame = 0
	@ frame_needed = 0, uses_anonymous_args = 0
	strd	r4, [sp, #-16]!
	.save {r4, r5, r6, lr}
	mov	r4, r1
	str	r6, [sp, #8]
	str	lr, [sp, #12]
	ldr	r1, [r1, #12]
	ldrh	ip, [r2, #4]	@ unaligned
	ldrh	r5, [r2, #6]	@ unaligned
	cmp	r1, #0
	bne	.L1112
	movw	r1, #:lower16:.LANCHOR1
	movt	r1, #:upper16:.LANCHOR1
	ldrb	r0, [r1, #190]	@ zero_extendqisi2
	cmp	r0, #0
	beq	.L1112
	ldrb	r3, [r2]	@ zero_extendqisi2
	ldrb	r0, [r2, #1]	@ zero_extendqisi2
	cmp	r3, #128
	beq	.L1114
	cmp	r3, #192
	cmpeq	r0, #165
	moveq	r3, #1
	movne	r3, #0
	cmp	ip, #4
	movne	r3, #0
	andeq	r3, r3, #1
	cmp	r3, #0
	beq	.L1112
	ldr	r3, [r4, #4]
	cmp	r5, #40
	add	r1, r1, #164
	movcc	r6, r5
	movcs	r6, #40
	mov	r2, r6
	ldr	r0, [r3]
	bl	memcpy
.L1106:
	ldr	r3, [r4, #4]
	cmp	r5, r6
	mov	r2, #32
	movle	r5, #0
	movgt	r5, #1
	ldrb	r1, [r3, #26]	@ zero_extendqisi2
	bfi	r1, r5, #1, #1
	strb	r1, [r3, #26]
	ldr	r3, [r4, #4]
	str	r6, [r3, #4]
	ldr	r3, [r4]
	ldr	r1, [r4, #4]
	ldr	r0, [r3, #4]
	ldr	r3, [r0, #8]
	ldr	r3, [r3, #16]
	blx	r3
	subs	r2, r0, #0
	blt	.L1115
.L1103:
	mov	r0, r6
	ldrd	r4, [sp]
	ldr	r6, [sp, #8]
	add	sp, sp, #12
	ldr	pc, [sp], #4
.L1114:
	cmp	r0, #6
	beq	.L1116
.L1112:
	mvn	r6, #94
	b	.L1103
.L1116:
	ldrh	r3, [r2, #2]	@ unaligned
	lsr	r2, r3, #8
	cmp	r2, #3
	bne	.L1112
	uxtb	r3, r3
	cmp	r3, #238
	bne	.L1112
	ldr	r3, [r4, #4]
	cmp	r5, #18
	add	r1, r1, #204
	movcc	r6, r5
	movcs	r6, #18
	mov	r2, r6
	ldr	r0, [r3]
	bl	memcpy
	b	.L1106
.L1115:
	movw	r0, #:lower16:.LC58
	ldr	r1, .L1117
	movt	r0, #:upper16:.LC58
	bl	printk
	b	.L1103
.L1118:
	.align	2
.L1117:
	.word	.LANCHOR2+432
	.fnend
	.size	mbim_function_ctrlrequest, .-mbim_function_ctrlrequest
	.section	.rodata.str1.4
	.align	2
.LC59:
	.ascii	"<6>%s: Close mbim file\000"
	.section	.text.unlikely
	.align	2
	.syntax unified
	.arm
	.fpu softvfp
	.type	mbim_release, %function
mbim_release:
	.fnstart
	@ args = 0, pretend = 0, frame = 0
	@ frame_needed = 0, uses_anonymous_args = 0
	movw	r0, #:lower16:.LC59
	push	{r4, lr}
	.save {r4, lr}
	ldr	r1, .L1121
	movt	r0, #:upper16:.LC59
	bl	printk
	movw	r3, #:lower16:.LANCHOR0
	movt	r3, #:upper16:.LANCHOR0
	ldr	r3, [r3, #840]
	add	r2, r3, #84
	.syntax divided
@ 83 "/run/media/tfonda/HDD/android/bacon/android_kernel_oppo_msm8974/arch/arm/include/asm/atomic.h" 1
	@ atomic_sub
1:	ldrex	r1, [r2]
	sub	r1, r1, #1
	strex	r0, r1, [r2]
	teq	r0, #0
	bne	1b
@ 0 "" 2
	.arm
	.syntax unified
	mov	r0, #0
	pop	{r4, pc}
.L1122:
	.align	2
.L1121:
	.word	.LANCHOR2+452
	.fnend
	.size	mbim_release, .-mbim_release
	.section	.rodata.str1.4
	.align	2
.LC60:
	.ascii	"<6>%s: Open mbim driver\012\000"
	.align	2
.LC61:
	.ascii	"<3>%s: mbim_dev not created yet\012\000"
	.align	2
.LC62:
	.ascii	"<6>%s: Lock mbim_dev->open_excl for open\012\000"
	.align	2
.LC63:
	.ascii	"<3>%s: USB cable not connected\012\000"
	.align	2
.LC64:
	.ascii	"<6>%s: Exit, mbim file opened\012\000"
	.section	.text.unlikely
	.align	2
	.syntax unified
	.arm
	.fpu softvfp
	.type	mbim_open, %function
mbim_open:
	.fnstart
	@ args = 0, pretend = 0, frame = 0
	@ frame_needed = 0, uses_anonymous_args = 0
	movw	r0, #:lower16:.LC60
	push	{r4, r5, r6, lr}
	.save {r4, r5, r6, lr}
	movt	r0, #:upper16:.LC60
	mov	r5, r1
	ldr	r1, .L1130
	bl	printk
	movw	r2, #:lower16:.LANCHOR0
	movt	r2, #:upper16:.LANCHOR0
	ldr	r3, [r2, #840]
	cmp	r3, #0
	bne	.L1124
	movw	r0, #:lower16:.LC61
	ldr	r1, .L1130
	movt	r0, #:upper16:.LC61
	bl	printk
	mvn	r0, #18
	pop	{r4, r5, r6, pc}
.L1124:
	mov	r4, r2
	add	r2, r3, #84
	.syntax divided
@ 60 "/run/media/tfonda/HDD/android/bacon/android_kernel_oppo_msm8974/arch/arm/include/asm/atomic.h" 1
	dmb
@ 0 "" 2
@ 111 "/run/media/tfonda/HDD/android/bacon/android_kernel_oppo_msm8974/arch/arm/include/asm/processor.h" 1
	pld	[r2]
@ 0 "" 2
@ 63 "/run/media/tfonda/HDD/android/bacon/android_kernel_oppo_msm8974/arch/arm/include/asm/atomic.h" 1
	@ atomic_add_return
1:	ldrex	r1, [r2]
	add	r1, r1, #1
	strex	r0, r1, [r2]
	teq	r0, #0
	bne	1b
@ 0 "" 2
@ 73 "/run/media/tfonda/HDD/android/bacon/android_kernel_oppo_msm8974/arch/arm/include/asm/atomic.h" 1
	dmb
@ 0 "" 2
	.arm
	.syntax unified
	cmp	r1, #1
	bne	.L1126
	movw	r0, #:lower16:.LC62
	ldr	r1, .L1130
	movt	r0, #:upper16:.LC62
	bl	printk
	ldr	r3, [r4, #840]
	ldr	r3, [r3, #80]
	cmp	r3, #0
	bne	.L1128
	movw	r0, #:lower16:.LC63
	ldr	r1, .L1130
	movt	r0, #:upper16:.LC63
	bl	printk
	b	.L1128
.L1126:
	.syntax divided
@ 83 "/run/media/tfonda/HDD/android/bacon/android_kernel_oppo_msm8974/arch/arm/include/asm/atomic.h" 1
	@ atomic_sub
1:	ldrex	r1, [r2]
	sub	r1, r1, #1
	strex	r0, r1, [r2]
	teq	r0, #0
	bne	1b
@ 0 "" 2
	.arm
	.syntax unified
	movw	r0, #:lower16:.LC47
	ldr	r1, .L1130
	movt	r0, #:upper16:.LC47
	bl	printk
	mvn	r0, #15
	pop	{r4, r5, r6, pc}
.L1128:
	ldr	r3, [r4, #840]
	mov	r4, #0
	movw	r0, #:lower16:.LC64
	ldr	r1, .L1130
	movt	r0, #:upper16:.LC64
	str	r3, [r5, #132]
	str	r4, [r3, #224]
	bl	printk
	mov	r0, r4
	pop	{r4, r5, r6, pc}
.L1131:
	.align	2
.L1130:
	.word	.LANCHOR2+468
	.fnend
	.size	mbim_open, .-mbim_open
	.section	.rodata.str1.4
	.align	2
.LC65:
	.ascii	"<3>%s: port:%pK port#%d unable to open sdio ch:%s\012"
	.ascii	"\000"
	.section	.text.unlikely
	.align	2
	.syntax unified
	.arm
	.fpu softvfp
	.type	gsdio_open_work, %function
gsdio_open_work:
	.fnstart
	@ args = 0, pretend = 0, frame = 0
	@ frame_needed = 0, uses_anonymous_args = 0
	mov	r3, r0
	str	lr, [sp, #-4]!
	.save {lr}
	ldr	ip, [r3, #-4]
	.pad #12
	sub	sp, sp, #12
	sub	r2, r3, #124
	ldr	r1, .L1134
	movw	r0, #:lower16:.LC65
	ldr	r3, [r3, #-124]
	movt	r0, #:upper16:.LC65
	ldr	ip, [ip]
	str	ip, [sp]
	bl	printk
	add	sp, sp, #12
	@ sp needed
	ldr	pc, [sp], #4
.L1135:
	.align	2
.L1134:
	.word	.LANCHOR2+480
	.fnend
	.size	gsdio_open_work, .-gsdio_open_work
	.section	.rodata.str1.4
	.align	2
.LC66:
	.ascii	"%d\012\000"
	.text
	.align	2
	.syntax unified
	.arm
	.fpu softvfp
	.type	remote_wakeup_show, %function
remote_wakeup_show:
	.fnstart
	@ args = 0, pretend = 0, frame = 0
	@ frame_needed = 0, uses_anonymous_args = 0
	.save {r4, lr}
	str	r4, [sp, #-8]!
	mov	r4, r2
	str	lr, [sp, #4]
	bl	dev_get_drvdata
	mov	r3, r0
	ldr	r0, [r0, #204]
	cmp	r0, #0
	beq	.L1136
	ldr	r3, [r3, #196]
	movw	r2, #:lower16:.LC66
	mov	r0, r4
	movt	r2, #:upper16:.LC66
	mov	r1, #4096
	ldrb	r3, [r3, #-98]	@ zero_extendqisi2
	ubfx	r3, r3, #5, #1
	bl	snprintf
	mov	r0, #2
.L1136:
	ldr	r4, [sp]
	add	sp, sp, #4
	ldr	pc, [sp], #4
	.fnend
	.size	remote_wakeup_show, .-remote_wakeup_show
	.section	.rodata.str1.4
	.align	2
.LC67:
	.ascii	"CONFIGURED\000"
	.align	2
.LC68:
	.ascii	"DISCONNECTED\000"
	.align	2
.LC69:
	.ascii	"CONNECTED\000"
	.align	2
.LC70:
	.ascii	"%s\012\000"
	.text
	.align	2
	.syntax unified
	.arm
	.fpu softvfp
	.type	state_show, %function
state_show:
	.fnstart
	@ args = 0, pretend = 0, frame = 0
	@ frame_needed = 0, uses_anonymous_args = 0
	strd	r4, [sp, #-24]!
	.save {r4, r5, r6, r7, r8, lr}
	mov	r5, r2
	strd	r6, [sp, #8]
	str	r8, [sp, #16]
	str	lr, [sp, #20]
	bl	dev_get_drvdata
	ldr	r6, [r0, #8]
	cmp	r6, #0
	beq	.L1145
	add	r7, r6, #60
	mov	r4, r0
	mov	r0, r7
	bl	_raw_spin_lock_irqsave
	ldr	r3, [r6, #12]
	mov	r1, r0
	cmp	r3, #0
	movwne	r4, #:lower16:.LC67
	movtne	r4, #:upper16:.LC67
	beq	.L1149
.L1144:
	mov	r0, r7
	bl	_raw_spin_unlock_irqrestore
.L1143:
	movw	r2, #:lower16:.LC70
	mov	r3, r4
	ldrd	r6, [sp, #8]
	mov	r0, r5
	movt	r2, #:upper16:.LC70
	ldrd	r4, [sp]
	mov	r1, #4096
	ldr	r8, [sp, #16]
	ldr	lr, [sp, #20]
	add	sp, sp, #24
	b	snprintf
.L1149:
	ldrb	r2, [r4, #52]	@ zero_extendqisi2
	movw	r3, #:lower16:.LC69
	movw	r4, #:lower16:.LC68
	movt	r3, #:upper16:.LC69
	movt	r4, #:upper16:.LC68
	cmp	r2, #0
	movne	r4, r3
	b	.L1144
.L1145:
	movw	r4, #:lower16:.LC68
	movt	r4, #:upper16:.LC68
	b	.L1143
	.fnend
	.size	state_show, .-state_show
	.align	2
	.syntax unified
	.arm
	.fpu softvfp
	.type	pm_qos_show, %function
pm_qos_show:
	.fnstart
	@ args = 0, pretend = 0, frame = 0
	@ frame_needed = 0, uses_anonymous_args = 0
	.save {r4, lr}
	str	r4, [sp, #-8]!
	mov	r4, r2
	str	lr, [sp, #4]
	bl	dev_get_drvdata
	mov	r3, r0
	movw	r2, #:lower16:.LC70
	ldr	lr, [sp, #4]
	mov	r0, r4
	add	r3, r3, #56
	ldr	r4, [sp]
	movt	r2, #:upper16:.LC70
	mov	r1, #4096
	add	sp, sp, #8
	b	snprintf
	.fnend
	.size	pm_qos_show, .-pm_qos_show
	.align	2
	.syntax unified
	.arm
	.fpu softvfp
	.type	enable_show, %function
enable_show:
	.fnstart
	@ args = 0, pretend = 0, frame = 0
	@ frame_needed = 0, uses_anonymous_args = 0
	.save {r4, lr}
	str	r4, [sp, #-8]!
	mov	r4, r2
	str	lr, [sp, #4]
	bl	dev_get_drvdata
	mov	r3, r0
	movw	r2, #:lower16:.LC66
	mov	r0, r4
	ldrb	r3, [r3, #16]	@ zero_extendqisi2
	movt	r2, #:upper16:.LC66
	mov	r1, #4096
	bl	snprintf
	ldr	r4, [sp]
	add	sp, sp, #4
	mov	r0, #2
	ldr	pc, [sp], #4
	.fnend
	.size	enable_show, .-enable_show
	.section	.rodata.str1.4
	.align	2
.LC71:
	.ascii	"%s\000"
	.text
	.align	2
	.syntax unified
	.arm
	.fpu softvfp
	.type	iSerial_show, %function
iSerial_show:
	.fnstart
	@ args = 0, pretend = 0, frame = 0
	@ frame_needed = 0, uses_anonymous_args = 0
	@ link register save eliminated.
	mov	r0, r2
	movw	r2, #:lower16:.LC71
	ldr	r3, .L1155
	movt	r2, #:upper16:.LC71
	mov	r1, #4096
	b	snprintf
.L1156:
	.align	2
.L1155:
	.word	.LANCHOR0+844
	.fnend
	.size	iSerial_show, .-iSerial_show
	.align	2
	.syntax unified
	.arm
	.fpu softvfp
	.type	iProduct_show, %function
iProduct_show:
	.fnstart
	@ args = 0, pretend = 0, frame = 0
	@ frame_needed = 0, uses_anonymous_args = 0
	@ link register save eliminated.
	mov	r0, r2
	movw	r2, #:lower16:.LC71
	ldr	r3, .L1158
	movt	r2, #:upper16:.LC71
	mov	r1, #4096
	b	snprintf
.L1159:
	.align	2
.L1158:
	.word	.LANCHOR0+1100
	.fnend
	.size	iProduct_show, .-iProduct_show
	.align	2
	.syntax unified
	.arm
	.fpu softvfp
	.type	iManufacturer_show, %function
iManufacturer_show:
	.fnstart
	@ args = 0, pretend = 0, frame = 0
	@ frame_needed = 0, uses_anonymous_args = 0
	@ link register save eliminated.
	mov	r0, r2
	movw	r2, #:lower16:.LC71
	ldr	r3, .L1161
	movt	r2, #:upper16:.LC71
	mov	r1, #4096
	b	snprintf
.L1162:
	.align	2
.L1161:
	.word	.LANCHOR0+1356
	.fnend
	.size	iManufacturer_show, .-iManufacturer_show
	.align	2
	.syntax unified
	.arm
	.fpu softvfp
	.type	bDeviceProtocol_show, %function
bDeviceProtocol_show:
	.fnstart
	@ args = 0, pretend = 0, frame = 0
	@ frame_needed = 0, uses_anonymous_args = 0
	@ link register save eliminated.
	movw	r3, #:lower16:.LANCHOR1
	mov	r0, r2
	movt	r3, #:upper16:.LANCHOR1
	movw	r2, #:lower16:.LC66
	ldrb	r3, [r3, #230]	@ zero_extendqisi2
	movt	r2, #:upper16:.LC66
	mov	r1, #4096
	b	snprintf
	.fnend
	.size	bDeviceProtocol_show, .-bDeviceProtocol_show
	.align	2
	.syntax unified
	.arm
	.fpu softvfp
	.type	bDeviceSubClass_show, %function
bDeviceSubClass_show:
	.fnstart
	@ args = 0, pretend = 0, frame = 0
	@ frame_needed = 0, uses_anonymous_args = 0
	@ link register save eliminated.
	movw	r3, #:lower16:.LANCHOR1
	mov	r0, r2
	movt	r3, #:upper16:.LANCHOR1
	movw	r2, #:lower16:.LC66
	ldrb	r3, [r3, #229]	@ zero_extendqisi2
	movt	r2, #:upper16:.LC66
	mov	r1, #4096
	b	snprintf
	.fnend
	.size	bDeviceSubClass_show, .-bDeviceSubClass_show
	.align	2
	.syntax unified
	.arm
	.fpu softvfp
	.type	bDeviceClass_show, %function
bDeviceClass_show:
	.fnstart
	@ args = 0, pretend = 0, frame = 0
	@ frame_needed = 0, uses_anonymous_args = 0
	@ link register save eliminated.
	movw	r3, #:lower16:.LANCHOR1
	mov	r0, r2
	movt	r3, #:upper16:.LANCHOR1
	movw	r2, #:lower16:.LC66
	ldrb	r3, [r3, #228]	@ zero_extendqisi2
	movt	r2, #:upper16:.LC66
	mov	r1, #4096
	b	snprintf
	.fnend
	.size	bDeviceClass_show, .-bDeviceClass_show
	.section	.rodata.str1.4
	.align	2
.LC72:
	.ascii	"%04x\012\000"
	.text
	.align	2
	.syntax unified
	.arm
	.fpu softvfp
	.type	bcdDevice_show, %function
bcdDevice_show:
	.fnstart
	@ args = 0, pretend = 0, frame = 0
	@ frame_needed = 0, uses_anonymous_args = 0
	movw	r3, #:lower16:.LANCHOR1
	mov	r0, r2
	.save {r4, lr}
	str	r4, [sp, #-8]!
	movt	r3, #:upper16:.LANCHOR1
	movw	r2, #:lower16:.LC72
	str	lr, [sp, #4]
	movt	r2, #:upper16:.LC72
	ldrh	r3, [r3, #236]
	mov	r1, #4096
	bl	snprintf
	ldr	r4, [sp]
	add	sp, sp, #4
	mov	r0, #5
	ldr	pc, [sp], #4
	.fnend
	.size	bcdDevice_show, .-bcdDevice_show
	.align	2
	.syntax unified
	.arm
	.fpu softvfp
	.type	idProduct_show, %function
idProduct_show:
	.fnstart
	@ args = 0, pretend = 0, frame = 0
	@ frame_needed = 0, uses_anonymous_args = 0
	movw	r3, #:lower16:.LANCHOR1
	mov	r0, r2
	.save {r4, lr}
	str	r4, [sp, #-8]!
	movt	r3, #:upper16:.LANCHOR1
	movw	r2, #:lower16:.LC72
	str	lr, [sp, #4]
	movt	r2, #:upper16:.LC72
	ldrh	r3, [r3, #234]
	mov	r1, #4096
	bl	snprintf
	ldr	r4, [sp]
	add	sp, sp, #4
	mov	r0, #5
	ldr	pc, [sp], #4
	.fnend
	.size	idProduct_show, .-idProduct_show
	.align	2
	.syntax unified
	.arm
	.fpu softvfp
	.type	idVendor_show, %function
idVendor_show:
	.fnstart
	@ args = 0, pretend = 0, frame = 0
	@ frame_needed = 0, uses_anonymous_args = 0
	movw	r3, #:lower16:.LANCHOR1
	mov	r0, r2
	.save {r4, lr}
	str	r4, [sp, #-8]!
	movt	r3, #:upper16:.LANCHOR1
	movw	r2, #:lower16:.LC72
	str	lr, [sp, #4]
	movt	r2, #:upper16:.LC72
	ldrh	r3, [r3, #232]
	mov	r1, #4096
	bl	snprintf
	ldr	r4, [sp]
	add	sp, sp, #4
	mov	r0, #5
	ldr	pc, [sp], #4
	.fnend
	.size	idVendor_show, .-idVendor_show
	.section	.rodata.str1.4
	.align	2
.LC73:
	.ascii	"%d %d\012\000"
	.text
	.align	2
	.syntax unified
	.arm
	.fpu softvfp
	.type	audio_source_pcm_show, %function
audio_source_pcm_show:
	.fnstart
	@ args = 0, pretend = 0, frame = 0
	@ frame_needed = 0, uses_anonymous_args = 0
	.save {r4, lr}
	str	r4, [sp, #-8]!
	mov	r4, r2
	str	lr, [sp, #4]
	.pad #8
	sub	sp, sp, #8
	bl	dev_get_drvdata
	ldr	ip, [r0, #4]
	movw	r2, #:lower16:.LC73
	mov	r1, #4096
	movt	r2, #:upper16:.LC73
	mov	r0, r4
	ldm	ip, {r3, ip}
	str	ip, [sp]
	bl	snprintf
	add	sp, sp, #8
	@ sp needed
	ldr	r4, [sp]
	add	sp, sp, #4
	ldr	pc, [sp], #4
	.fnend
	.size	audio_source_pcm_show, .-audio_source_pcm_show
	.align	2
	.syntax unified
	.arm
	.fpu softvfp
	.type	mass_storage_inquiry_show, %function
mass_storage_inquiry_show:
	.fnstart
	@ args = 0, pretend = 0, frame = 0
	@ frame_needed = 0, uses_anonymous_args = 0
	.save {r4, lr}
	str	r4, [sp, #-8]!
	mov	r4, r2
	str	lr, [sp, #4]
	bl	dev_get_drvdata
	ldr	r3, [r0, #4]
	movw	r2, #:lower16:.LC70
	mov	r0, r4
	movt	r2, #:upper16:.LC70
	mov	r1, #4096
	ldr	r4, [sp]
	ldr	lr, [sp, #4]
	add	sp, sp, #8
	ldr	r3, [r3, #96]
	add	r3, r3, #180
	b	snprintf
	.fnend
	.size	mass_storage_inquiry_show, .-mass_storage_inquiry_show
	.section	.rodata.str1.4
	.align	2
.LC74:
	.ascii	"%02x:%02x:%02x:%02x:%02x:%02x\012\000"
	.text
	.align	2
	.syntax unified
	.arm
	.fpu softvfp
	.type	ncm_ethaddr_show, %function
ncm_ethaddr_show:
	.fnstart
	@ args = 0, pretend = 0, frame = 0
	@ frame_needed = 0, uses_anonymous_args = 0
	.save {r4, lr}
	str	r4, [sp, #-8]!
	mov	r4, r2
	str	lr, [sp, #4]
	.pad #24
	sub	sp, sp, #24
	bl	dev_get_drvdata
	ldr	ip, [r0, #4]
	movw	r2, #:lower16:.LC74
	mov	r1, #4096
	movt	r2, #:upper16:.LC74
	mov	r0, r4
	ldrb	lr, [ip, #5]	@ zero_extendqisi2
	ldrb	r3, [ip]	@ zero_extendqisi2
	str	lr, [sp, #16]
	ldrb	lr, [ip, #4]	@ zero_extendqisi2
	str	lr, [sp, #12]
	ldrb	lr, [ip, #3]	@ zero_extendqisi2
	str	lr, [sp, #8]
	ldrb	lr, [ip, #2]	@ zero_extendqisi2
	str	lr, [sp, #4]
	ldrb	ip, [ip, #1]	@ zero_extendqisi2
	str	ip, [sp]
	bl	snprintf
	mov	r0, #18
	add	sp, sp, #24
	@ sp needed
	ldr	r4, [sp]
	add	sp, sp, #4
	ldr	pc, [sp], #4
	.fnend
	.size	ncm_ethaddr_show, .-ncm_ethaddr_show
	.align	2
	.syntax unified
	.arm
	.fpu softvfp
	.type	ecm_ethaddr_show, %function
ecm_ethaddr_show:
	.fnstart
	@ args = 0, pretend = 0, frame = 0
	@ frame_needed = 0, uses_anonymous_args = 0
	.save {r4, lr}
	str	r4, [sp, #-8]!
	mov	r4, r2
	str	lr, [sp, #4]
	.pad #24
	sub	sp, sp, #24
	bl	dev_get_drvdata
	ldr	ip, [r0, #4]
	movw	r2, #:lower16:.LC74
	mov	r1, #4096
	movt	r2, #:upper16:.LC74
	mov	r0, r4
	ldrb	lr, [ip, #5]	@ zero_extendqisi2
	ldrb	r3, [ip]	@ zero_extendqisi2
	str	lr, [sp, #16]
	ldrb	lr, [ip, #4]	@ zero_extendqisi2
	str	lr, [sp, #12]
	ldrb	lr, [ip, #3]	@ zero_extendqisi2
	str	lr, [sp, #8]
	ldrb	lr, [ip, #2]	@ zero_extendqisi2
	str	lr, [sp, #4]
	ldrb	ip, [ip, #1]	@ zero_extendqisi2
	str	ip, [sp]
	bl	snprintf
	mov	r0, #18
	add	sp, sp, #24
	@ sp needed
	ldr	r4, [sp]
	add	sp, sp, #4
	ldr	pc, [sp], #4
	.fnend
	.size	ecm_ethaddr_show, .-ecm_ethaddr_show
	.align	2
	.syntax unified
	.arm
	.fpu softvfp
	.type	ecm_transports_show, %function
ecm_transports_show:
	.fnstart
	@ args = 0, pretend = 0, frame = 0
	@ frame_needed = 0, uses_anonymous_args = 0
	@ link register save eliminated.
	mov	r0, r2
	movw	r2, #:lower16:.LC70
	ldr	r3, .L1181
	movt	r2, #:upper16:.LC70
	mov	r1, #4096
	b	snprintf
.L1182:
	.align	2
.L1181:
	.word	.LANCHOR0+1612
	.fnend
	.size	ecm_transports_show, .-ecm_transports_show
	.align	2
	.syntax unified
	.arm
	.fpu softvfp
	.type	rndis_max_pkt_per_xfer_show, %function
rndis_max_pkt_per_xfer_show:
	.fnstart
	@ args = 0, pretend = 0, frame = 0
	@ frame_needed = 0, uses_anonymous_args = 0
	.save {r4, lr}
	str	r4, [sp, #-8]!
	mov	r4, r2
	str	lr, [sp, #4]
	bl	dev_get_drvdata
	ldr	r3, [r0, #4]
	movw	r2, #:lower16:.LC66
	mov	r0, r4
	movt	r2, #:upper16:.LC66
	mov	r1, #4096
	ldr	r4, [sp]
	ldr	lr, [sp, #4]
	add	sp, sp, #8
	ldrb	r3, [r3, #12]	@ zero_extendqisi2
	b	snprintf
	.fnend
	.size	rndis_max_pkt_per_xfer_show, .-rndis_max_pkt_per_xfer_show
	.align	2
	.syntax unified
	.arm
	.fpu softvfp
	.type	rndis_vendorID_show, %function
rndis_vendorID_show:
	.fnstart
	@ args = 0, pretend = 0, frame = 0
	@ frame_needed = 0, uses_anonymous_args = 0
	.save {r4, lr}
	str	r4, [sp, #-8]!
	mov	r4, r2
	str	lr, [sp, #4]
	bl	dev_get_drvdata
	ldr	r3, [r0, #4]
	movw	r2, #:lower16:.LC72
	mov	r0, r4
	movt	r2, #:upper16:.LC72
	mov	r1, #4096
	ldr	r4, [sp]
	ldr	lr, [sp, #4]
	add	sp, sp, #8
	ldr	r3, [r3, #8]
	b	snprintf
	.fnend
	.size	rndis_vendorID_show, .-rndis_vendorID_show
	.align	2
	.syntax unified
	.arm
	.fpu softvfp
	.type	rndis_ethaddr_show, %function
rndis_ethaddr_show:
	.fnstart
	@ args = 0, pretend = 0, frame = 0
	@ frame_needed = 0, uses_anonymous_args = 0
	.save {r4, lr}
	str	r4, [sp, #-8]!
	mov	r4, r2
	str	lr, [sp, #4]
	.pad #24
	sub	sp, sp, #24
	bl	dev_get_drvdata
	ldr	ip, [r0, #4]
	movw	r2, #:lower16:.LC74
	mov	r1, #4096
	movt	r2, #:upper16:.LC74
	mov	r0, r4
	ldrb	lr, [ip, #5]	@ zero_extendqisi2
	ldrb	r3, [ip]	@ zero_extendqisi2
	str	lr, [sp, #16]
	ldrb	lr, [ip, #4]	@ zero_extendqisi2
	str	lr, [sp, #12]
	ldrb	lr, [ip, #3]	@ zero_extendqisi2
	str	lr, [sp, #8]
	ldrb	lr, [ip, #2]	@ zero_extendqisi2
	str	lr, [sp, #4]
	ldrb	ip, [ip, #1]	@ zero_extendqisi2
	str	ip, [sp]
	bl	snprintf
	mov	r0, #18
	add	sp, sp, #24
	@ sp needed
	ldr	r4, [sp]
	add	sp, sp, #4
	ldr	pc, [sp], #4
	.fnend
	.size	rndis_ethaddr_show, .-rndis_ethaddr_show
	.align	2
	.syntax unified
	.arm
	.fpu softvfp
	.type	rndis_wceis_show, %function
rndis_wceis_show:
	.fnstart
	@ args = 0, pretend = 0, frame = 0
	@ frame_needed = 0, uses_anonymous_args = 0
	.save {r4, lr}
	str	r4, [sp, #-8]!
	mov	r4, r2
	str	lr, [sp, #4]
	bl	dev_get_drvdata
	ldr	r3, [r0, #4]
	movw	r2, #:lower16:.LC66
	mov	r0, r4
	movt	r2, #:upper16:.LC66
	mov	r1, #4096
	ldrb	r3, [r3, #269]	@ zero_extendqisi2
	bl	snprintf
	ldr	r4, [sp]
	add	sp, sp, #4
	mov	r0, #2
	ldr	pc, [sp], #4
	.fnend
	.size	rndis_wceis_show, .-rndis_wceis_show
	.align	2
	.syntax unified
	.arm
	.fpu softvfp
	.type	rndis_manufacturer_show, %function
rndis_manufacturer_show:
	.fnstart
	@ args = 0, pretend = 0, frame = 0
	@ frame_needed = 0, uses_anonymous_args = 0
	.save {r4, lr}
	str	r4, [sp, #-8]!
	mov	r4, r2
	str	lr, [sp, #4]
	bl	dev_get_drvdata
	ldr	r3, [r0, #4]
	movw	r2, #:lower16:.LC70
	mov	r0, r4
	movt	r2, #:upper16:.LC70
	mov	r1, #4096
	ldr	r4, [sp]
	ldr	lr, [sp, #4]
	add	sp, sp, #8
	add	r3, r3, #13
	b	snprintf
	.fnend
	.size	rndis_manufacturer_show, .-rndis_manufacturer_show
	.align	2
	.syntax unified
	.arm
	.fpu softvfp
	.type	serial_xport_names_show, %function
serial_xport_names_show:
	.fnstart
	@ args = 0, pretend = 0, frame = 0
	@ frame_needed = 0, uses_anonymous_args = 0
	@ link register save eliminated.
	mov	r0, r2
	movw	r2, #:lower16:.LC70
	ldr	r3, .L1194
	movt	r2, #:upper16:.LC70
	mov	r1, #4096
	b	snprintf
.L1195:
	.align	2
.L1194:
	.word	.LANCHOR0+1664
	.fnend
	.size	serial_xport_names_show, .-serial_xport_names_show
	.align	2
	.syntax unified
	.arm
	.fpu softvfp
	.type	rmnet_xport_names_show, %function
rmnet_xport_names_show:
	.fnstart
	@ args = 0, pretend = 0, frame = 0
	@ frame_needed = 0, uses_anonymous_args = 0
	@ link register save eliminated.
	mov	r0, r2
	movw	r2, #:lower16:.LC70
	ldr	r3, .L1197
	movt	r2, #:upper16:.LC70
	mov	r1, #4096
	b	snprintf
.L1198:
	.align	2
.L1197:
	.word	.LANCHOR0+1696
	.fnend
	.size	rmnet_xport_names_show, .-rmnet_xport_names_show
	.align	2
	.syntax unified
	.arm
	.fpu softvfp
	.type	rmnet_transports_show, %function
rmnet_transports_show:
	.fnstart
	@ args = 0, pretend = 0, frame = 0
	@ frame_needed = 0, uses_anonymous_args = 0
	@ link register save eliminated.
	mov	r0, r2
	movw	r2, #:lower16:.LC70
	ldr	r3, .L1200
	movt	r2, #:upper16:.LC70
	mov	r1, #4096
	b	snprintf
.L1201:
	.align	2
.L1200:
	.word	.LANCHOR0+1748
	.fnend
	.size	rmnet_transports_show, .-rmnet_transports_show
	.align	2
	.syntax unified
	.arm
	.fpu softvfp
	.type	mbim_transports_show, %function
mbim_transports_show:
	.fnstart
	@ args = 0, pretend = 0, frame = 0
	@ frame_needed = 0, uses_anonymous_args = 0
	@ link register save eliminated.
	mov	r0, r2
	movw	r2, #:lower16:.LC70
	ldr	r3, .L1203
	movt	r2, #:upper16:.LC70
	mov	r1, #4096
	b	snprintf
.L1204:
	.align	2
.L1203:
	.word	.LANCHOR0+1800
	.fnend
	.size	mbim_transports_show, .-mbim_transports_show
	.section	.rodata.str1.4
	.align	2
.LC75:
	.ascii	"common->fsg is NULL in %s at %u\012\000"
	.align	2
.LC76:
	.ascii	"drivers/usb/gadget/f_mass_storage.c\000"
	.align	2
.LC77:
	.ascii	"error in submission: %s --> %d\012\000"
	.text
	.align	2
	.syntax unified
	.arm
	.fpu softvfp
	.type	start_out_transfer, %function
start_out_transfer:
	.fnstart
	@ args = 0, pretend = 0, frame = 0
	@ frame_needed = 0, uses_anonymous_args = 0
	strd	r4, [sp, #-24]!
	.save {r4, r5, r6, r7, r8, lr}
	strd	r6, [sp, #8]
	str	r8, [sp, #16]
	str	lr, [sp, #20]
	ldr	r4, [r0, #8]
	cmp	r4, #0
	beq	.L1206
	ldr	r0, [r4, #80]
	mov	r5, r1
	ldr	r7, [r1, #24]
	ldr	r6, [r4, #96]
	add	r0, r0, #44
	bl	_raw_spin_lock_irq
	mov	r3, #1
	mov	r2, #2
	str	r2, [r5, #4]
	str	r3, [r5, #28]
	ldr	r0, [r4, #80]
	add	r0, r0, #44
	bl	_raw_spin_unlock_irq
	ldr	r3, [r6, #8]
	mov	r1, r7
	mov	r0, r6
	mov	r2, #208
	ldr	r3, [r3, #16]
	blx	r3
	subs	r3, r0, #0
	beq	.L1218
	mov	r2, #0
	cmn	r3, #108
	str	r2, [r5, #4]
	str	r2, [r5, #28]
	beq	.L1218
	cmn	r3, #95
	bne	.L1210
	ldr	r2, [r7, #4]
	cmp	r2, #0
	bne	.L1210
.L1218:
	mov	r0, #1
.L1208:
	ldrd	r4, [sp]
	ldrd	r6, [sp, #8]
	ldr	r8, [sp, #16]
	add	sp, sp, #20
	ldr	pc, [sp], #4
.L1210:
	ldr	r0, [r4, #76]
	movw	r1, #:lower16:.LC77
	movt	r1, #:upper16:.LC77
	ldr	r2, [r6, #4]
	add	r0, r0, #32
	bl	dev_warn
	b	.L1218
.L1206:
	ldr	r0, [r0]
	movw	r1, #:lower16:.LC75
	mov	r3, #716
	ldr	r2, .L1219
	movt	r1, #:upper16:.LC75
	add	r0, r0, #32
	bl	dev_err
	movw	r0, #:lower16:.LC76
	movw	r1, #461
	movt	r0, #:upper16:.LC76
	bl	warn_slowpath_null
	mov	r0, r4
	b	.L1208
.L1220:
	.align	2
.L1219:
	.word	.LANCHOR2+496
	.fnend
	.size	start_out_transfer, .-start_out_transfer
	.section	.rodata.str1.4
	.align	2
.LC78:
	.ascii	"delayed status mismatch..resetting\012\000"
	.text
	.align	2
	.syntax unified
	.arm
	.fpu softvfp
	.type	composite_disconnect, %function
composite_disconnect:
	.fnstart
	@ args = 0, pretend = 0, frame = 0
	@ frame_needed = 0, uses_anonymous_args = 0
	add	r0, r0, #32
	strd	r4, [sp, #-24]!
	.save {r4, r5, r6, r7, r8, lr}
	strd	r6, [sp, #8]
	str	r8, [sp, #16]
	str	lr, [sp, #20]
	bl	dev_get_drvdata
	add	r6, r0, #60
	mov	r8, r0
	mov	r0, r6
	bl	_raw_spin_lock_irqsave
	ldr	r3, [r8, #12]
	mov	r5, r0
	cmp	r3, #0
	beq	.L1222
	ldr	r4, [r3, #36]!
	cmp	r4, r3
	sub	r4, r4, #64
	beq	.L1223
	mov	r7, #0
.L1226:
	ldr	r3, [r4, #40]
	mov	r0, r4
	cmp	r3, #0
	streq	r3, [r4, #72]
	beq	.L1239
	blx	r3
	str	r7, [r4, #72]
.L1239:
	ldr	r3, [r8, #12]
	ldr	r4, [r4, #64]
	add	r3, r3, #36
	cmp	r4, r3
	sub	r4, r4, #64
	bne	.L1226
.L1223:
	movw	r3, #:lower16:.LANCHOR0
	mov	r2, #0
	movt	r3, #:upper16:.LANCHOR0
	ldr	r3, [r3, #396]
	str	r2, [r8, #12]
	str	r2, [r8, #56]
	ldr	r3, [r3, #32]
	cmp	r3, r2
	beq	.L1228
.L1227:
	mov	r0, r8
	blx	r3
.L1229:
	ldr	r3, [r8, #56]
	cmp	r3, #0
	bne	.L1240
.L1228:
	mov	r1, r5
	mov	r0, r6
	ldrd	r4, [sp]
	ldrd	r6, [sp, #8]
	ldr	r8, [sp, #16]
	ldr	lr, [sp, #20]
	add	sp, sp, #24
	b	_raw_spin_unlock_irqrestore
.L1240:
	ldr	r0, [r8]
	movw	r1, #:lower16:.LC78
	movt	r1, #:upper16:.LC78
	add	r0, r0, #32
	bl	_dev_info
	mov	r3, #0
	str	r3, [r8, #56]
	b	.L1228
.L1222:
	movw	r3, #:lower16:.LANCHOR0
	movt	r3, #:upper16:.LANCHOR0
	ldr	r3, [r3, #396]
	ldr	r3, [r3, #32]
	cmp	r3, #0
	bne	.L1227
	b	.L1229
	.fnend
	.size	composite_disconnect, .-composite_disconnect
	.section	.rodata.str1.4
	.align	2
.LC79:
	.ascii	"rmnet %s response error %d, %d/%d\012\000"
	.text
	.align	2
	.syntax unified
	.arm
	.fpu softvfp
	.type	rmnet_sdio_response_complete, %function
rmnet_sdio_response_complete:
	.fnstart
	@ args = 0, pretend = 0, frame = 0
	@ frame_needed = 0, uses_anonymous_args = 0
	ldr	r3, [r1, #44]
	cmp	r3, #0
	bxeq	lr
	mov	r2, r1
	add	r1, r3, #108
	bics	r1, r1, #4
	bxeq	lr
	.save {r4, lr}
	str	r4, [sp, #-8]!
	movw	r1, #:lower16:.LC79
	str	lr, [sp, #4]
	ldr	ip, [r2, #4]
	.pad #8
	sub	sp, sp, #8
	ldr	r4, [r2, #32]
	movt	r1, #:upper16:.LC79
	ldr	lr, [r2, #48]
	ldr	r2, [r0, #4]
	ldr	r0, [r4, #76]
	ldr	r0, [r0]
	str	lr, [sp]
	str	ip, [sp, #4]
	add	r0, r0, #32
	bl	_dev_info
	add	sp, sp, #8
	@ sp needed
	ldr	r4, [sp]
	add	sp, sp, #4
	ldr	pc, [sp], #4
	.fnend
	.size	rmnet_sdio_response_complete, .-rmnet_sdio_response_complete
	.section	.rodata.str1.4
	.align	2
.LC80:
	.ascii	"rmnet_mux %s response error %d, %d/%d\012\000"
	.text
	.align	2
	.syntax unified
	.arm
	.fpu softvfp
	.type	rmnet_mux_response_complete, %function
rmnet_mux_response_complete:
	.fnstart
	@ args = 0, pretend = 0, frame = 0
	@ frame_needed = 0, uses_anonymous_args = 0
	ldr	r3, [r1, #44]
	cmp	r3, #0
	bxeq	lr
	mov	r2, r1
	add	r1, r3, #108
	bics	r1, r1, #4
	bxeq	lr
	.save {r4, lr}
	str	r4, [sp, #-8]!
	movw	r1, #:lower16:.LC80
	str	lr, [sp, #4]
	ldr	ip, [r2, #4]
	.pad #8
	sub	sp, sp, #8
	ldr	r4, [r2, #32]
	movt	r1, #:upper16:.LC80
	ldr	lr, [r2, #48]
	ldr	r2, [r0, #4]
	ldr	r0, [r4, #76]
	ldr	r0, [r0]
	str	lr, [sp]
	str	ip, [sp, #4]
	add	r0, r0, #32
	bl	_dev_info
	add	sp, sp, #8
	@ sp needed
	ldr	r4, [sp]
	add	sp, sp, #4
	ldr	pc, [sp], #4
	.fnend
	.size	rmnet_mux_response_complete, .-rmnet_mux_response_complete
	.align	2
	.syntax unified
	.arm
	.fpu softvfp
	.type	composite_show_suspended, %function
composite_show_suspended:
	.fnstart
	@ args = 0, pretend = 0, frame = 0
	@ frame_needed = 0, uses_anonymous_args = 0
	.save {r4, lr}
	str	r4, [sp, #-8]!
	mov	r4, r2
	str	lr, [sp, #4]
	bl	dev_get_drvdata
	ldrb	r2, [r0, #16]	@ zero_extendqisi2
	movw	r1, #:lower16:.LC66
	mov	r0, r4
	movt	r1, #:upper16:.LC66
	and	r2, r2, #1
	bl	sprintf
	ldr	r4, [sp]
	add	sp, sp, #4
	mov	r0, #2
	ldr	pc, [sp], #4
	.fnend
	.size	composite_show_suspended, .-composite_show_suspended
	.align	2
	.syntax unified
	.arm
	.fpu softvfp
	.type	midi_alsa_show, %function
midi_alsa_show:
	.fnstart
	@ args = 0, pretend = 0, frame = 0
	@ frame_needed = 0, uses_anonymous_args = 0
	.save {r4, lr}
	str	r4, [sp, #-8]!
	mov	r4, r2
	str	lr, [sp, #4]
	bl	dev_get_drvdata
	ldr	r3, [r0, #4]
	movw	r1, #:lower16:.LC73
	mov	r0, r4
	movt	r1, #:upper16:.LC73
	ldr	r4, [sp]
	ldr	lr, [sp, #4]
	add	sp, sp, #8
	ldrd	r2, [r3]
	b	sprintf
	.fnend
	.size	midi_alsa_show, .-midi_alsa_show
	.align	2
	.syntax unified
	.arm
	.fpu softvfp
	.type	fsg_show_ro, %function
fsg_show_ro:
	.fnstart
	@ args = 0, pretend = 0, frame = 0
	@ frame_needed = 0, uses_anonymous_args = 0
	mov	r3, r0
	mov	r0, r2
	.save {r4, lr}
	str	r4, [sp, #-8]!
	str	lr, [sp, #4]
	ldr	r2, [r3, #-48]
	movw	r1, #:lower16:.LC66
	movt	r1, #:upper16:.LC66
	cmp	r2, #0
	ldrb	r2, [r3, #-24]	@ zero_extendqisi2
	ubfxne	r2, r2, #1, #1
	andeq	r2, r2, #1
	bl	sprintf
	ldr	r4, [sp]
	add	sp, sp, #4
	mov	r0, #2
	ldr	pc, [sp], #4
	.fnend
	.size	fsg_show_ro, .-fsg_show_ro
	.section	.rodata.str1.4
	.align	2
.LC81:
	.ascii	"%u\012\000"
	.text
	.align	2
	.syntax unified
	.arm
	.fpu softvfp
	.type	fsg_show_nofua, %function
fsg_show_nofua:
	.fnstart
	@ args = 0, pretend = 0, frame = 0
	@ frame_needed = 0, uses_anonymous_args = 0
	.save {r4, lr}
	str	r4, [sp, #-8]!
	movw	r1, #:lower16:.LC81
	str	lr, [sp, #4]
	ldrb	r3, [r0, #-24]	@ zero_extendqisi2
	movt	r1, #:upper16:.LC81
	mov	r0, r2
	lsr	r2, r3, #7
	bl	sprintf
	ldr	r4, [sp]
	add	sp, sp, #4
	mov	r0, #2
	ldr	pc, [sp], #4
	.fnend
	.size	fsg_show_nofua, .-fsg_show_nofua
	.align	2
	.syntax unified
	.arm
	.fpu softvfp
	.type	fsg_show_cdrom, %function
fsg_show_cdrom:
	.fnstart
	@ args = 0, pretend = 0, frame = 0
	@ frame_needed = 0, uses_anonymous_args = 0
	.save {r4, lr}
	str	r4, [sp, #-8]!
	movw	r1, #:lower16:.LC66
	str	lr, [sp, #4]
	ldrb	r3, [r0, #-24]	@ zero_extendqisi2
	movt	r1, #:upper16:.LC66
	mov	r0, r2
	ubfx	r2, r3, #3, #1
	bl	sprintf
	ldr	r4, [sp]
	add	sp, sp, #4
	mov	r0, #2
	ldr	pc, [sp], #4
	.fnend
	.size	fsg_show_cdrom, .-fsg_show_cdrom
	.section	.rodata.str1.4
	.align	2
.LC82:
	.ascii	"include/linux/netdevice.h\000"
	.align	2
.LC83:
	.ascii	"<6>netif_stop_queue() cannot be called before regis"
	.ascii	"ter_netdev()\012\000"
	.text
	.align	2
	.syntax unified
	.arm
	.fpu softvfp
	.type	eth_qc_stop, %function
eth_qc_stop:
	.fnstart
	@ args = 0, pretend = 0, frame = 0
	@ frame_needed = 0, uses_anonymous_args = 0
	strd	r4, [sp, #-16]!
	.save {r4, r5, r6, lr}
	mov	r4, r0
	str	r6, [sp, #8]
	str	lr, [sp, #12]
	ldr	r1, [r0, #576]
	ldr	r6, [r0, #1220]
	cmp	r1, #0
	beq	.L1289
	add	r1, r1, #80
	mov	r0, #0
	bl	_set_bit
.L1280:
	add	r5, r4, #1216
	mov	r0, r5
	bl	_raw_spin_lock_irqsave
	ldr	r3, [r4, #1220]
	mov	r4, r0
	cmp	r3, #0
	beq	.L1279
	ldr	r3, [r6, #108]
	cmp	r3, #0
	beq	.L1279
	mov	r0, r6
	blx	r3
.L1279:
	mov	r0, r5
	mov	r1, r4
	bl	_raw_spin_unlock_irqrestore
	ldrd	r4, [sp]
	mov	r0, #0
	ldr	r6, [sp, #8]
	add	sp, sp, #12
	ldr	pc, [sp], #4
.L1289:
	movw	r0, #:lower16:.LC82
	movw	r1, #1847
	movt	r0, #:upper16:.LC82
	bl	warn_slowpath_null
	movw	r0, #:lower16:.LC83
	movt	r0, #:upper16:.LC83
	bl	printk
	b	.L1280
	.fnend
	.size	eth_qc_stop, .-eth_qc_stop
	.section	.rodata.str1.4
	.align	2
.LC84:
	.ascii	"snd_card_create() failed\012\000"
	.align	2
.LC85:
	.ascii	"snd_device_new() failed: error %d\012\000"
	.align	2
.LC88:
	.ascii	"MIDI\000"
	.align	2
.LC89:
	.ascii	"snd_rawmidi_new() failed: error %d\012\000"
	.align	2
.LC90:
	.ascii	"snd_card_register() failed\012\000"
	.align	2
.LC86:
	.ascii	"MIDI Gadget\000"
	.align	2
.LC87:
	.ascii	"f_midi\000"
	.text
	.align	2
	.syntax unified
	.arm
	.fpu softvfp
	.type	f_midi_register_card, %function
f_midi_register_card:
	.fnstart
	@ args = 0, pretend = 0, frame = 8
	@ frame_needed = 0, uses_anonymous_args = 0
	strd	r4, [sp, #-16]!
	.save {r4, r5, r6, lr}
	mov	r3, #0
	mov	r5, r0
	str	r6, [sp, #8]
	str	lr, [sp, #12]
	.pad #16
	sub	sp, sp, #16
	add	r2, sp, #8
	str	r2, [sp]
	mov	r2, r3
	ldr	r0, [r0, #320]
	ldr	r1, [r5, #324]
	bl	snd_card_create
	subs	r4, r0, #0
	blt	.L1301
	ldr	r0, [sp, #8]
	mov	r2, r5
	mov	r1, #8192
	ldr	r3, .L1305
	str	r0, [r5, #88]
	bl	snd_device_new
	subs	r4, r0, #0
	blt	.L1302
	movw	r3, #:lower16:.LC86
	movw	r2, #:lower16:.LC87
	ldr	r0, [sp, #8]
	movt	r2, #:upper16:.LC87
	movt	r3, #:upper16:.LC86
	ldrb	r4, [r2, #6]	@ zero_extendqisi2
	movw	r1, #:lower16:.LC88
	ldrh	r6, [r2, #4]
	movt	r1, #:upper16:.LC88
	ldr	ip, [r3]
	ldr	lr, [r2]
	ldrd	r2, [r3, #4]
	str	ip, [r0, #20]	@ unaligned
	strh	r6, [r0, #40]	@ unaligned
	str	r2, [r0, #24]	@ unaligned
	str	r3, [r0, #28]	@ unaligned
	str	lr, [r0, #36]	@ unaligned
	strb	r4, [r0, #42]
	str	ip, [r0, #68]	@ unaligned
	str	r2, [r0, #72]	@ unaligned
	str	r3, [r0, #76]	@ unaligned
	bl	snd_component_add
	ldr	r0, [sp, #8]
	add	r3, sp, #12
	mov	r2, #0
	ldr	ip, [r5, #312]
	str	r3, [sp, #4]
	ldr	r3, [r5, #316]
	add	r1, r0, #68
	str	ip, [sp]
	bl	snd_rawmidi_new
	subs	r4, r0, #0
	blt	.L1303
	ldr	r1, [sp, #8]
	ldr	r4, [sp, #12]
	add	r1, r1, #36
	add	r0, r4, #84
	str	r4, [r5, #92]
	bl	strcpy
	mov	r3, #7
	mov	r0, r4
	ldr	r2, .L1305+4
	mov	r1, #0
	str	r3, [r4, #16]
	str	r5, [r4, #200]
	bl	snd_rawmidi_set_ops
	ldr	r2, .L1305+8
	mov	r1, #1
	ldr	r0, [sp, #12]
	bl	snd_rawmidi_set_ops
	ldr	r3, [r5, #76]
	ldr	r0, [sp, #8]
	add	r3, r3, #32
	str	r3, [r0, #500]
	bl	snd_card_register
	subs	r4, r0, #0
	movge	r4, #0
	blt	.L1304
.L1290:
	mov	r0, r4
	add	sp, sp, #16
	@ sp needed
	ldrd	r4, [sp]
	ldr	r6, [sp, #8]
	add	sp, sp, #12
	ldr	pc, [sp], #4
.L1301:
	ldr	r0, [r5, #76]
	movw	r1, #:lower16:.LC84
	movt	r1, #:upper16:.LC84
	add	r0, r0, #32
	bl	dev_err
.L1292:
	ldr	r0, [r5, #88]
	cmp	r0, #0
	beq	.L1290
	bl	snd_card_free
	mov	r3, #0
	str	r3, [r5, #88]
	b	.L1290
.L1303:
	ldr	r0, [r5, #76]
	movw	r1, #:lower16:.LC89
	mov	r2, r4
	movt	r1, #:upper16:.LC89
	add	r0, r0, #32
	bl	dev_err
	b	.L1292
.L1302:
	ldr	r0, [r5, #76]
	movw	r1, #:lower16:.LC85
	mov	r2, r4
	movt	r1, #:upper16:.LC85
	add	r0, r0, #32
	bl	dev_err
	b	.L1292
.L1304:
	ldr	r0, [r5, #76]
	movw	r1, #:lower16:.LC90
	movt	r1, #:upper16:.LC90
	add	r0, r0, #32
	bl	dev_err
	b	.L1292
.L1306:
	.align	2
.L1305:
	.word	.LANCHOR1+244
	.word	.LANCHOR1+256
	.word	.LANCHOR1+272
	.fnend
	.size	f_midi_register_card, .-f_midi_register_card
	.align	2
	.syntax unified
	.arm
	.fpu softvfp
	.type	f_midi_out_trigger, %function
f_midi_out_trigger:
	.fnstart
	@ args = 0, pretend = 0, frame = 0
	@ frame_needed = 0, uses_anonymous_args = 0
	@ link register save eliminated.
	ldr	r3, [r0, #28]
	cmp	r1, #0
	ldr	r0, [r0, #12]
	ldr	r1, [r3, #200]
	add	r1, r1, #288
	beq	.L1308
	b	_set_bit
.L1308:
	b	_clear_bit
	.fnend
	.size	f_midi_out_trigger, .-f_midi_out_trigger
	.align	2
	.syntax unified
	.arm
	.fpu softvfp
	.type	gctrl_disconnect_w, %function
gctrl_disconnect_w:
	.fnstart
	@ args = 0, pretend = 0, frame = 0
	@ frame_needed = 0, uses_anonymous_args = 0
	@ link register save eliminated.
	ldr	r3, [r0, #52]
	tst	r3, #1
	bne	.L1311
	bx	lr
.L1311:
	add	r1, r0, #52
	mov	r0, #0
	b	_clear_bit
	.fnend
	.size	gctrl_disconnect_w, .-gctrl_disconnect_w
	.align	2
	.syntax unified
	.arm
	.fpu softvfp
	.type	ghsic_data_disconnect_w, %function
ghsic_data_disconnect_w:
	.fnstart
	@ args = 0, pretend = 0, frame = 0
	@ frame_needed = 0, uses_anonymous_args = 0
	@ link register save eliminated.
	ldr	r3, [r0, #76]
	tst	r3, #1
	bne	.L1314
	bx	lr
.L1314:
	add	r1, r0, #76
	mov	r0, #0
	b	_clear_bit
	.fnend
	.size	ghsic_data_disconnect_w, .-ghsic_data_disconnect_w
	.align	2
	.syntax unified
	.arm
	.fpu softvfp
	.type	ghsuart_ctrl_remove, %function
ghsuart_ctrl_remove:
	.fnstart
	@ args = 0, pretend = 0, frame = 0
	@ frame_needed = 0, uses_anonymous_args = 0
	strd	r4, [sp, #-16]!
	.save {r4, r5, r6, lr}
	movw	r2, #:lower16:.LANCHOR0
	mov	r1, #84
	str	r6, [sp, #8]
	movt	r2, #:upper16:.LANCHOR0
	str	lr, [sp, #12]
	ldr	r3, [r0, #4]
	mla	r3, r1, r3, r2
	ldr	r4, [r3, #1852]
	add	r6, r4, #8
	mov	r0, r6
	bl	_raw_spin_lock_irqsave
	ldr	r5, [r4, #12]
	mov	r1, r0
	mov	r0, r6
	cmp	r5, #0
	beq	.L1323
	bl	_raw_spin_unlock_irqrestore
	ldr	r3, [r5, #96]
	cmp	r3, #0
	beq	.L1318
	mov	r0, r5
	blx	r3
.L1318:
	add	r4, r4, #88
	mov	r0, #0
	mov	r1, r4
	bl	_clear_bit
	mov	r1, r4
	mov	r0, #2
	bl	_clear_bit
.L1317:
	mov	r1, r4
	mov	r0, #1
	bl	_clear_bit
	ldrd	r4, [sp]
	mov	r0, #0
	ldr	r6, [sp, #8]
	add	sp, sp, #12
	ldr	pc, [sp], #4
.L1323:
	add	r4, r4, #88
	bl	_raw_spin_unlock_irqrestore
	b	.L1317
	.fnend
	.size	ghsuart_ctrl_remove, .-ghsuart_ctrl_remove
	.align	2
	.syntax unified
	.arm
	.fpu softvfp
	.type	f_midi_in_trigger, %function
f_midi_in_trigger:
	.fnstart
	@ args = 0, pretend = 0, frame = 0
	@ frame_needed = 0, uses_anonymous_args = 0
	ldr	r3, [r0, #12]
	ldr	r2, [r0, #28]
	add	r3, r3, #56
	ldr	r2, [r2, #200]
	ldr	r3, [r2, r3, lsl #2]
	cmp	r3, #0
	bxeq	lr
	cmp	r1, #0
	str	r1, [r3, #4]
	bxeq	lr
	add	r1, r2, #296
	mov	r0, #0
	.save {r4, lr}
	str	r4, [sp, #-8]!
	add	r4, r2, #292
	str	lr, [sp, #4]
	bl	_test_and_set_bit
	cmp	r0, #0
	beq	.L1335
	ldr	r4, [sp]
	add	sp, sp, #4
	ldr	pc, [sp], #4
.L1335:
	mov	r0, r4
	ldr	r4, [sp]
	ldr	lr, [sp, #4]
	add	sp, sp, #8
	b	__tasklet_hi_schedule
	.fnend
	.size	f_midi_in_trigger, .-f_midi_in_trigger
	.section	.rodata.str1.4
	.align	2
.LC91:
	.ascii	"<3>%s: write error:%d\012\000"
	.text
	.align	2
	.syntax unified
	.arm
	.fpu softvfp
	.type	ghsuart_send_cpkt_tomodem, %function
ghsuart_send_cpkt_tomodem:
	.fnstart
	@ args = 0, pretend = 0, frame = 0
	@ frame_needed = 0, uses_anonymous_args = 0
	movw	ip, #:lower16:.LANCHOR0
	mov	r3, r0
	strd	r4, [sp, #-24]!
	.save {r4, r5, r6, r7, r8, lr}
	movt	ip, #:upper16:.LANCHOR0
	strd	r6, [sp, #8]
	ldr	r0, [ip, #2020]
	str	r8, [sp, #16]
	str	lr, [sp, #20]
	cmp	r3, r0
	bcs	.L1347
	mov	r0, #84
	mla	r3, r0, r3, ip
	ldr	r4, [r3, #1852]
	cmp	r4, #0
	beq	.L1348
	ldr	r0, [r4, #88]
	tst	r0, #4
	ubfx	r0, r0, #2, #1
	beq	.L1349
	mov	r6, r1
	mov	r0, r2
	mov	r1, #32
	mov	r5, r2
	bl	__kmalloc
	subs	r7, r0, #0
	mvneq	r0, #11
	beq	.L1336
	mov	r2, r5
	mov	r1, r6
	bl	memcpy
	ldr	r1, .L1351
	ldr	r0, .L1351+4
	bl	___ratelimit
	cmp	r0, #0
	bne	.L1350
.L1341:
	ldr	r3, [r4, #104]
	mov	r0, r7
	add	r3, r3, #1
	str	r3, [r4, #104]
	bl	kfree
	mvn	r0, #18
.L1336:
	ldrd	r4, [sp]
	ldrd	r6, [sp, #8]
	ldr	r8, [sp, #16]
	add	sp, sp, #20
	ldr	pc, [sp], #4
.L1349:
	ldr	r3, [r4, #104]
	add	r3, r3, #1
	str	r3, [r4, #104]
	b	.L1336
.L1348:
	movw	r0, #:lower16:.LC15
	ldr	r1, .L1351
	movt	r0, #:upper16:.LC15
	bl	printk
	mvn	r0, #18
	b	.L1336
.L1347:
	movw	r0, #:lower16:.LC19
	ldr	r1, .L1351
	mov	r2, r3
	movt	r0, #:upper16:.LC19
	bl	printk
	mvn	r0, #18
	b	.L1336
.L1350:
	movw	r0, #:lower16:.LC91
	ldr	r1, .L1351
	mvn	r2, #18
	movt	r0, #:upper16:.LC91
	bl	printk
	b	.L1341
.L1352:
	.align	2
.L1351:
	.word	.LANCHOR2+516
	.word	.LANCHOR1+288
	.fnend
	.size	ghsuart_send_cpkt_tomodem, .-ghsuart_send_cpkt_tomodem
	.section	.rodata.str1.4
	.align	2
.LC92:
	.ascii	"uether\000"
	.align	2
.LC93:
	.ascii	"<3>%s: %s: Unable to create workqueue: uether\012\000"
	.section	.init.text
	.align	2
	.syntax unified
	.arm
	.fpu softvfp
	.type	gether_init, %function
gether_init:
	.fnstart
	@ args = 0, pretend = 0, frame = 0
	@ frame_needed = 0, uses_anonymous_args = 0
	push	{r4, lr}
	.save {r4, lr}
	mov	r4, #0
	.pad #8
	sub	sp, sp, #8
	movw	r0, #:lower16:.LC92
	mov	r3, r4
	movt	r0, #:upper16:.LC92
	mov	r2, #1
	mov	r1, #10
	str	r4, [sp]
	bl	__alloc_workqueue_key
	movw	r3, #:lower16:.LANCHOR0
	cmp	r0, r4
	movt	r3, #:upper16:.LANCHOR0
	str	r0, [r3, #2024]
	movne	r0, r4
	bne	.L1353
	ldr	r2, .L1357
	movw	r0, #:lower16:.LC93
	movt	r0, #:upper16:.LC93
	mov	r1, r2
	bl	printk
	mvn	r0, #11
.L1353:
	add	sp, sp, #8
	@ sp needed
	pop	{r4, pc}
.L1358:
	.align	2
.L1357:
	.word	.LANCHOR2+544
	.fnend
	.size	gether_init, .-gether_init
	.text
	.align	2
	.syntax unified
	.arm
	.fpu softvfp
	.type	rmnet_smd_disable, %function
rmnet_smd_disable:
	.fnstart
	@ args = 0, pretend = 0, frame = 0
	@ frame_needed = 0, uses_anonymous_args = 0
	.save {r4, lr}
	str	r4, [sp, #-8]!
	mov	r4, r0
	mov	r3, #0
	str	lr, [sp, #4]
	ldr	r0, [r0, #88]
	str	r3, [r4, #160]
	ldr	r3, [r0, #8]
	ldr	r2, [r3, #36]
	cmp	r2, #0
	beq	.L1360
	blx	r2
	ldr	r0, [r4, #88]
	ldr	r3, [r0, #8]
.L1360:
	ldr	r3, [r3, #4]
	blx	r3
	ldr	r0, [r4, #80]
	ldr	r3, [r0, #8]
	ldr	r2, [r3, #36]
	cmp	r2, #0
	beq	.L1361
	blx	r2
	ldr	r0, [r4, #80]
	ldr	r3, [r0, #8]
.L1361:
	ldr	r3, [r3, #4]
	blx	r3
	ldr	r0, [r4, #84]
	ldr	r3, [r0, #8]
	ldr	r2, [r3, #36]
	cmp	r2, #0
	beq	.L1362
	blx	r2
	ldr	r0, [r4, #84]
	ldr	r3, [r0, #8]
.L1362:
	ldr	r3, [r3, #4]
	blx	r3
	add	r1, r4, #400
	ldr	lr, [sp, #4]
	ldr	r0, [r4, #380]
	ldr	r4, [sp]
	add	sp, sp, #8
	b	queue_work
	.fnend
	.size	rmnet_smd_disable, .-rmnet_smd_disable
	.align	2
	.syntax unified
	.arm
	.fpu softvfp
	.type	rmnet_smd_ch_probe, %function
rmnet_smd_ch_probe:
	.fnstart
	@ args = 0, pretend = 0, frame = 0
	@ frame_needed = 0, uses_anonymous_args = 0
	movw	r3, #:lower16:.LANCHOR0
	.save {r4, lr}
	str	r4, [sp, #-8]!
	movt	r3, #:upper16:.LANCHOR0
	str	lr, [sp, #4]
	ldr	r3, [r3, #2028]
	add	r1, r3, #384
	ldr	r0, [r3, #380]
	bl	queue_work
	ldr	r4, [sp]
	add	sp, sp, #4
	mov	r0, #0
	ldr	pc, [sp], #4
	.fnend
	.size	rmnet_smd_ch_probe, .-rmnet_smd_ch_probe
	.section	.rodata.str1.4
	.align	2
.LC94:
	.ascii	"qmi resp empty  req%02x.%02x v%04x i%04x l%d\012\000"
	.text
	.align	2
	.syntax unified
	.arm
	.fpu softvfp
	.type	rmnet_sdio_setup, %function
rmnet_sdio_setup:
	.fnstart
	@ args = 0, pretend = 0, frame = 8
	@ frame_needed = 0, uses_anonymous_args = 0
	strd	r4, [sp, #-36]!
	.save {r4, r5, r6, r7, r8, r9, r10, fp, lr}
	strd	r6, [sp, #8]
	strd	r8, [sp, #16]
	strd	r10, [sp, #24]
	str	lr, [sp, #32]
	ldr	r2, [r0, #20]
	.pad #28
	sub	sp, sp, #28
	ldr	r3, [r0, #184]
	ldrh	r9, [r1, #2]	@ unaligned
	ldrh	r8, [r1, #6]	@ unaligned
	ldr	r7, [r2, #24]
	cmp	r3, #0
	ldr	r6, [r7, #4]
	beq	.L1383
	ldrh	r3, [r1]	@ unaligned
	movw	r2, #8482
	mov	r4, r0
	mov	r5, r1
	rev16	r3, r3
	uxth	r3, r3
	cmp	r3, r2
	beq	.L1377
	movw	r2, #41217
	cmp	r3, r2
	beq	.L1378
	cmp	r3, #8448
	beq	.L1387
.L1385:
	mvn	r4, #94
.L1375:
	mov	r0, r4
	add	sp, sp, #28
	@ sp needed
	ldrd	r4, [sp]
	ldrd	r6, [sp, #8]
	ldrd	r8, [sp, #16]
	ldrd	r10, [sp, #24]
	add	sp, sp, #32
	ldr	pc, [sp], #4
.L1377:
	ldr	r3, [r0, #320]
	tst	r9, #1
	add	r1, r0, #324
	mov	r5, #0
	ldr	r0, [r0, #192]
	orrne	r3, r3, #2
	biceq	r3, r3, #2
	str	r3, [r4, #320]
	bl	queue_work
	subs	r8, r8, r5
	movne	r8, #1
.L1379:
	ldrb	r3, [r6, #26]	@ zero_extendqisi2
	str	r5, [r6, #4]
	mov	r1, r6
	mov	r2, #32
	bfi	r3, r8, #1, #1
	strb	r3, [r6, #26]
	ldr	r3, [r7]
	ldr	r0, [r3, #4]
	ldr	r3, [r0, #8]
	ldr	r3, [r3, #16]
	blx	r3
	subs	r4, r0, #0
	bge	.L1375
	ldr	r0, [r7]
	movw	r1, #:lower16:.LC55
	mov	r2, r4
	movt	r1, #:upper16:.LC55
	add	r0, r0, #32
	bl	dev_err
	b	.L1375
.L1387:
	movw	r3, #:lower16:rmnet_sdio_command_complete
	mov	r5, r8
	str	r0, [r6, #32]
	movt	r3, #:upper16:rmnet_sdio_command_complete
	mov	r8, #0
	str	r3, [r6, #28]
	b	.L1379
.L1378:
	cmp	r9, #0
	bne	.L1385
	ldrh	r3, [r1, #4]	@ unaligned
	add	r10, r0, #180
	mov	r0, r10
	str	r3, [sp, #20]
	bl	_raw_spin_lock
	mov	r2, r4
	ldr	fp, [r2, #112]!
	cmp	fp, r2
	beq	.L1388
	ldm	fp, {r1, r2}
	mov	lr, #256
	mov	ip, #512
	mov	r0, r10
	mov	r9, fp
	str	r2, [r1, #4]
	str	r1, [r2]
	str	lr, [fp]
	str	ip, [fp, #4]
	ldr	r2, [r4, #120]
	sub	r2, r2, #1
	str	r2, [r4, #120]
	bl	_raw_spin_unlock
	ldmdb	fp, {r1, r5}
	ldr	r0, [r6]
	cmp	r8, r5
	movcc	r5, r8
	mov	r2, r5
	bl	memcpy
	movw	r3, #:lower16:rmnet_sdio_response_complete
	str	r4, [r6, #32]
	movt	r3, #:upper16:rmnet_sdio_response_complete
	str	r3, [r6, #28]
	ldr	r0, [r9, #-8]!
	bl	kfree
	mov	r0, r9
	bl	kfree
	ldr	r3, [r4, #356]
	cmp	r5, r8
	movge	r8, #0
	movlt	r8, #1
	add	r3, r3, #1
	str	r3, [r4, #356]
	b	.L1379
.L1383:
	mvn	r4, #106
	b	.L1375
.L1388:
	ldr	r0, [r7]
	movw	r1, #:lower16:.LC94
	str	r9, [sp]
	ldr	r3, [sp, #20]
	movt	r1, #:upper16:.LC94
	mvn	r4, #94
	add	r0, r0, #32
	str	r3, [sp, #4]
	ldrb	r3, [r5, #1]	@ zero_extendqisi2
	ldrb	r2, [r5]	@ zero_extendqisi2
	str	r8, [sp, #8]
	bl	_dev_info
	mov	r0, r10
	bl	_raw_spin_unlock
	b	.L1375
	.fnend
	.size	rmnet_sdio_setup, .-rmnet_sdio_setup
	.align	2
	.syntax unified
	.arm
	.fpu softvfp
	.type	gs_unthrottle, %function
gs_unthrottle:
	.fnstart
	@ args = 0, pretend = 0, frame = 0
	@ frame_needed = 0, uses_anonymous_args = 0
	strd	r4, [sp, #-16]!
	.save {r4, r5, r6, lr}
	str	r6, [sp, #8]
	str	lr, [sp, #12]
	ldr	r4, [r0, #280]
	cmp	r4, #0
	beq	.L1389
	mov	r0, r4
	bl	_raw_spin_lock_irqsave
	ldr	r3, [r4, #4]
	mov	r5, r0
	cmp	r3, #0
	beq	.L1391
	movw	r3, #:lower16:.LANCHOR0
	add	r1, r4, #60
	movt	r3, #:upper16:.LANCHOR0
	ldr	r0, [r3, #2032]
	bl	queue_work
.L1391:
	mov	r1, r5
	mov	r0, r4
	ldrd	r4, [sp]
	ldr	r6, [sp, #8]
	ldr	lr, [sp, #12]
	add	sp, sp, #16
	b	_raw_spin_unlock_irqrestore
.L1389:
	ldrd	r4, [sp]
	ldr	r6, [sp, #8]
	add	sp, sp, #12
	ldr	pc, [sp], #4
	.fnend
	.size	gs_unthrottle, .-gs_unthrottle
	.align	2
	.syntax unified
	.arm
	.fpu softvfp
	.type	gs_read_complete, %function
gs_read_complete:
	.fnstart
	@ args = 0, pretend = 0, frame = 0
	@ frame_needed = 0, uses_anonymous_args = 0
	strd	r4, [sp, #-24]!
	.save {r4, r5, r6, r7, r8, lr}
	mov	r5, r1
	strd	r6, [sp, #8]
	str	r8, [sp, #16]
	str	lr, [sp, #20]
	ldr	r4, [r0]
	mov	r0, r4
	add	r7, r4, #48
	bl	_raw_spin_lock_irqsave
	ldr	r1, [r5, #48]
	add	lr, r5, #36
	movw	r2, #:lower16:.LANCHOR0
	ldr	ip, [r4, #52]
	movt	r2, #:upper16:.LANCHOR0
	mov	r6, r0
	ldr	r3, [r4, #128]
	str	lr, [r4, #52]
	ldr	r0, [r2, #2032]
	add	r3, r3, r1
	add	r1, r4, #60
	str	r3, [r4, #128]
	str	r7, [r5, #36]
	str	ip, [r5, #40]
	str	lr, [ip]
	bl	queue_work
	mov	r1, r6
	mov	r0, r4
	ldrd	r4, [sp]
	ldrd	r6, [sp, #8]
	ldr	r8, [sp, #16]
	ldr	lr, [sp, #20]
	add	sp, sp, #24
	b	_raw_spin_unlock_irqrestore
	.fnend
	.size	gs_read_complete, .-gs_read_complete
	.section	.rodata.str1.4
	.align	2
.LC95:
	.ascii	"<4>%s: port:%pK port#%d unexpected %s status %d\012"
	.ascii	"\000"
	.text
	.align	2
	.global	gsdio_write_complete
	.syntax unified
	.arm
	.fpu softvfp
	.type	gsdio_write_complete, %function
gsdio_write_complete:
	.fnstart
	@ args = 0, pretend = 0, frame = 0
	@ frame_needed = 0, uses_anonymous_args = 0
	strd	r4, [sp, #-24]!
	.save {r4, r5, r6, r7, r8, lr}
	strd	r6, [sp, #8]
	str	r8, [sp, #16]
	str	lr, [sp, #20]
	ldr	r4, [r0]
	.pad #8
	sub	sp, sp, #8
	cmp	r4, #0
	beq	.L1409
	add	r8, r4, #4
	mov	r6, r0
	mov	r0, r8
	mov	r5, r1
	bl	_raw_spin_lock_irqsave
	mov	r3, r4
	add	r2, r5, #36
	ldr	r1, [r3, #52]!
	mov	r7, r0
	str	r2, [r1, #4]
	str	r1, [r5, #36]
	str	r3, [r5, #40]
	ldr	r3, [r4, #76]
	str	r2, [r4, #52]
	add	r3, r3, #1
	str	r3, [r4, #76]
	ldr	r3, [r5, #44]
	cmn	r3, #108
	beq	.L1400
	cmp	r3, #0
	bne	.L1410
.L1401:
	movw	r3, #:lower16:.LANCHOR0
	add	r1, r4, #60
	movt	r3, #:upper16:.LANCHOR0
	ldr	r0, [r3, #2036]
	bl	queue_work
.L1400:
	mov	r1, r7
	mov	r0, r8
	add	sp, sp, #8
	@ sp needed
	ldrd	r4, [sp]
	ldrd	r6, [sp, #8]
	ldr	r8, [sp, #16]
	ldr	lr, [sp, #20]
	add	sp, sp, #24
	b	_raw_spin_unlock_irqrestore
.L1409:
	ldr	r1, .L1411
	movw	r0, #:lower16:.LC15
	movt	r0, #:upper16:.LC15
	add	sp, sp, #8
	@ sp needed
	ldrd	r4, [sp]
	ldrd	r6, [sp, #8]
	ldr	r8, [sp, #16]
	ldr	lr, [sp, #20]
	add	sp, sp, #24
	b	printk
.L1410:
	ldr	ip, [r6, #4]
	movw	r0, #:lower16:.LC95
	mov	r2, r4
	ldr	r1, .L1411
	movt	r0, #:upper16:.LC95
	str	ip, [sp]
	str	r3, [sp, #4]
	ldr	r3, [r4]
	bl	printk
	b	.L1401
.L1412:
	.align	2
.L1411:
	.word	.LANCHOR2+556
	.fnend
	.size	gsdio_write_complete, .-gsdio_write_complete
	.section	.rodata.str1.4
	.align	2
.LC96:
	.ascii	"<3>%s: invalid portno#%d\012\000"
	.align	2
.LC97:
	.ascii	"<3>%s: gser is null\012\000"
	.align	2
.LC98:
	.ascii	"<3>%s: port:%pK port#%d sdio not connected\012\000"
	.text
	.align	2
	.global	gsdio_ctrl_notify_modem
	.syntax unified
	.arm
	.fpu softvfp
	.type	gsdio_ctrl_notify_modem, %function
gsdio_ctrl_notify_modem:
	.fnstart
	@ args = 0, pretend = 0, frame = 0
	@ frame_needed = 0, uses_anonymous_args = 0
	strd	r4, [sp, #-16]!
	.save {r4, r5, r6, lr}
	movw	r4, #:lower16:.LANCHOR0
	movt	r4, #:upper16:.LANCHOR0
	str	r6, [sp, #8]
	ldr	ip, [r4, #2040]
	str	lr, [sp, #12]
	cmp	r1, ip
	bcs	.L1426
	cmp	r0, #0
	beq	.L1427
	mov	ip, #108
	lsl	r2, r2, #1
	mla	r1, ip, r1, r4
	and	r2, r2, #2
	ldr	r5, [r1, #2068]
	ldr	r1, [r5, #176]
	cmp	r1, r2
	beq	.L1413
	ldr	r1, [r5, #108]
	str	r2, [r5, #176]
	cmp	r1, #0
	beq	.L1428
	cmp	r2, #0
	beq	.L1418
	ldr	r3, [r0, #128]
	cmp	r3, #0
	beq	.L1418
	ldr	r1, [r5, #172]
	blx	r3
.L1418:
	add	r1, r5, #80
	ldr	r6, [sp, #8]
	ldr	lr, [sp, #12]
	ldr	r0, [r4, #2036]
	ldrd	r4, [sp]
	add	sp, sp, #16
	b	queue_work
.L1413:
	ldrd	r4, [sp]
	ldr	r6, [sp, #8]
	add	sp, sp, #12
	ldr	pc, [sp], #4
.L1428:
	movw	r0, #:lower16:.LC98
	mov	r2, r5
	ldr	r1, .L1429
	movt	r0, #:upper16:.LC98
	ldr	r3, [r5]
	ldrd	r4, [sp]
	ldr	r6, [sp, #8]
	ldr	lr, [sp, #12]
	add	sp, sp, #16
	b	printk
.L1427:
	movw	r0, #:lower16:.LC97
	ldr	r1, .L1429
	movt	r0, #:upper16:.LC97
	ldrd	r4, [sp]
	ldr	r6, [sp, #8]
	ldr	lr, [sp, #12]
	add	sp, sp, #16
	b	printk
.L1426:
	movw	r0, #:lower16:.LC96
	mov	r2, r1
	ldr	r1, .L1429
	movt	r0, #:upper16:.LC96
	ldrd	r4, [sp]
	ldr	r6, [sp, #8]
	ldr	lr, [sp, #12]
	add	sp, sp, #16
	b	printk
.L1430:
	.align	2
.L1429:
	.word	.LANCHOR2+580
	.fnend
	.size	gsdio_ctrl_notify_modem, .-gsdio_ctrl_notify_modem
	.align	2
	.syntax unified
	.arm
	.fpu softvfp
	.type	gsmd_write_complete, %function
gsmd_write_complete:
	.fnstart
	@ args = 0, pretend = 0, frame = 0
	@ frame_needed = 0, uses_anonymous_args = 0
	strd	r4, [sp, #-20]!
	.save {r4, r5, r6, r7, lr}
	strd	r6, [sp, #8]
	str	lr, [sp, #16]
	ldr	r5, [r0]
	.pad #12
	sub	sp, sp, #12
	cmp	r5, #0
	beq	.L1443
	add	r7, r5, #4
	mov	r6, r0
	mov	r0, r7
	mov	r4, r1
	bl	_raw_spin_lock
	ldr	r3, [r5, #72]
	ldr	r3, [r3, #8]
	tst	r3, #1
	beq	.L1433
	ldr	r3, [r4, #44]
	cmn	r3, #108
	beq	.L1433
	cmp	r3, #0
	bne	.L1444
.L1435:
	mov	r3, r5
	add	ip, r4, #36
	ldr	lr, [r3, #44]!
	movw	r2, #:lower16:.LANCHOR0
	add	r1, r5, #52
	movt	r2, #:upper16:.LANCHOR0
	ldr	r0, [r2, #2260]
	str	ip, [lr, #4]
	str	lr, [r4, #36]
	str	r3, [r4, #40]
	str	ip, [r5, #44]
	bl	queue_work
	mov	r0, r7
	add	sp, sp, #12
	@ sp needed
	ldrd	r4, [sp]
	ldrd	r6, [sp, #8]
	ldr	lr, [sp, #16]
	add	sp, sp, #20
	b	_raw_spin_unlock
.L1433:
	mov	r0, r7
	bl	_raw_spin_unlock
	ldr	r0, [r4]
	bl	kfree
	ldr	r3, [r6, #8]
	mov	r1, r4
	mov	r0, r6
	ldr	r3, [r3, #12]
	add	sp, sp, #12
	@ sp needed
	ldrd	r4, [sp]
	ldrd	r6, [sp, #8]
	ldr	lr, [sp, #16]
	add	sp, sp, #20
	bx	r3	@ indirect register sibling call
.L1443:
	ldr	r1, .L1445
	movw	r0, #:lower16:.LC15
	movt	r0, #:upper16:.LC15
	add	sp, sp, #12
	@ sp needed
	ldrd	r4, [sp]
	ldrd	r6, [sp, #8]
	ldr	lr, [sp, #16]
	add	sp, sp, #20
	b	printk
.L1444:
	ldr	ip, [r6, #4]
	movw	r0, #:lower16:.LC95
	mov	r2, r5
	ldr	r1, .L1445
	movt	r0, #:upper16:.LC95
	str	ip, [sp]
	str	r3, [sp, #4]
	ldr	r3, [r5]
	bl	printk
	b	.L1435
.L1446:
	.align	2
.L1445:
	.word	.LANCHOR2+604
	.fnend
	.size	gsmd_write_complete, .-gsmd_write_complete
	.align	2
	.syntax unified
	.arm
	.fpu softvfp
	.type	ghsuart_ctrl_probe, %function
ghsuart_ctrl_probe:
	.fnstart
	@ args = 0, pretend = 0, frame = 0
	@ frame_needed = 0, uses_anonymous_args = 0
	strd	r4, [sp, #-16]!
	.save {r4, r5, r6, lr}
	movw	r2, #:lower16:.LANCHOR0
	mov	r1, #84
	str	r6, [sp, #8]
	movt	r2, #:upper16:.LANCHOR0
	str	lr, [sp, #12]
	ldr	r3, [r0, #4]
	mov	r0, #1
	mla	r3, r1, r3, r2
	ldr	r4, [r3, #1852]
	add	r1, r4, #88
	add	r6, r4, #8
	bl	_set_bit
	mov	r0, r6
	bl	_raw_spin_lock_irqsave
	ldr	r3, [r4, #12]
	mov	r5, r0
	cmp	r3, #0
	beq	.L1448
	add	r1, r4, #36
	ldr	r0, [r4, #32]
	bl	queue_work
.L1448:
	mov	r0, r6
	mov	r1, r5
	bl	_raw_spin_unlock_irqrestore
	ldrd	r4, [sp]
	mov	r0, #0
	ldr	r6, [sp, #8]
	add	sp, sp, #12
	ldr	pc, [sp], #4
	.fnend
	.size	ghsuart_ctrl_probe, .-ghsuart_ctrl_probe
	.section	.rodata.str1.4
	.align	2
.LC99:
	.ascii	"<3>%s: invalid port: %d\012\000"
	.text
	.align	2
	.syntax unified
	.arm
	.fpu softvfp
	.type	ghsuart_data_probe, %function
ghsuart_data_probe:
	.fnstart
	@ args = 0, pretend = 0, frame = 0
	@ frame_needed = 0, uses_anonymous_args = 0
	movw	r2, #:lower16:.LANCHOR0
	.save {r4, lr}
	str	r4, [sp, #-8]!
	movt	r2, #:upper16:.LANCHOR0
	str	lr, [sp, #4]
	ldr	r3, [r0, #4]
	ldr	r1, [r2, #8]
	cmp	r1, r3
	bls	.L1460
	mov	r1, #84
	mov	r0, #1
	mla	r3, r1, r3, r2
	ldr	r4, [r3, #12]
	add	r1, r4, #188
	bl	_set_bit
	ldr	r0, [r4, #4]
	cmp	r0, #0
	bne	.L1461
.L1453:
	ldr	r4, [sp]
	add	sp, sp, #4
	ldr	pc, [sp], #4
.L1461:
	add	r1, r4, #112
	ldr	r0, [r4, #108]
	bl	queue_work
	ldr	r4, [sp]
	add	sp, sp, #4
	mov	r0, #0
	ldr	pc, [sp], #4
.L1460:
	movw	r0, #:lower16:.LC99
	ldr	r1, .L1462
	mov	r2, r3
	movt	r0, #:upper16:.LC99
	bl	printk
	mvn	r0, #21
	b	.L1453
.L1463:
	.align	2
.L1462:
	.word	.LANCHOR2+624
	.fnend
	.size	ghsuart_data_probe, .-ghsuart_data_probe
	.align	2
	.syntax unified
	.arm
	.fpu softvfp
	.type	ecm_qc_suspend, %function
ecm_qc_suspend:
	.fnstart
	@ args = 0, pretend = 0, frame = 0
	@ frame_needed = 0, uses_anonymous_args = 0
	@ link register save eliminated.
	movw	r3, #:lower16:.LANCHOR0
	movt	r3, #:upper16:.LANCHOR0
	ldr	r1, [r3, #2264]
	ldr	r0, [r3, #2268]
	add	r1, r1, #200
	b	queue_work
	.fnend
	.size	ecm_qc_suspend, .-ecm_qc_suspend
	.section	.rodata.str1.4
	.align	2
.LC100:
	.ascii	"<6>%s: mbim suspended\012\000"
	.section	.text.unlikely
	.align	2
	.syntax unified
	.arm
	.fpu softvfp
	.type	mbim_suspend, %function
mbim_suspend:
	.fnstart
	@ args = 0, pretend = 0, frame = 0
	@ frame_needed = 0, uses_anonymous_args = 0
	movw	r0, #:lower16:.LC100
	ldr	r1, .L1467
	push	{r4, lr}
	.save {r4, lr}
	movt	r0, #:upper16:.LC100
	bl	printk
	movw	r3, #:lower16:.LANCHOR0
	pop	{r4, lr}
	movt	r3, #:upper16:.LANCHOR0
	ldr	r1, [r3, #2264]
	ldr	r0, [r3, #2268]
	add	r1, r1, #200
	b	queue_work
.L1468:
	.align	2
.L1467:
	.word	.LANCHOR2+644
	.fnend
	.size	mbim_suspend, .-mbim_suspend
	.text
	.align	2
	.syntax unified
	.arm
	.fpu softvfp
	.type	ecm_qc_resume, %function
ecm_qc_resume:
	.fnstart
	@ args = 0, pretend = 0, frame = 0
	@ frame_needed = 0, uses_anonymous_args = 0
	@ link register save eliminated.
	movw	r3, #:lower16:.LANCHOR0
	movt	r3, #:upper16:.LANCHOR0
	ldr	r1, [r3, #2264]
	ldr	r0, [r3, #2268]
	add	r1, r1, #216
	b	queue_work
	.fnend
	.size	ecm_qc_resume, .-ecm_qc_resume
	.section	.rodata.str1.4
	.align	2
.LC101:
	.ascii	"<6>%s: mbim resumed\012\000"
	.section	.text.unlikely
	.align	2
	.syntax unified
	.arm
	.fpu softvfp
	.type	mbim_resume, %function
mbim_resume:
	.fnstart
	@ args = 0, pretend = 0, frame = 0
	@ frame_needed = 0, uses_anonymous_args = 0
	movw	r0, #:lower16:.LC101
	ldr	r1, .L1472
	push	{r4, lr}
	.save {r4, lr}
	movt	r0, #:upper16:.LC101
	bl	printk
	movw	r3, #:lower16:.LANCHOR0
	pop	{r4, lr}
	movt	r3, #:upper16:.LANCHOR0
	ldr	r1, [r3, #2264]
	ldr	r0, [r3, #2268]
	add	r1, r1, #216
	b	queue_work
.L1473:
	.align	2
.L1472:
	.word	.LANCHOR2+660
	.fnend
	.size	mbim_resume, .-mbim_resume
	.section	.exit.text
	.align	2
	.syntax unified
	.arm
	.fpu softvfp
	.type	gether_exit, %function
gether_exit:
	.fnstart
	@ args = 0, pretend = 0, frame = 0
	@ frame_needed = 0, uses_anonymous_args = 0
	@ link register save eliminated.
	movw	r3, #:lower16:.LANCHOR0
	movt	r3, #:upper16:.LANCHOR0
	ldr	r0, [r3, #2024]
	b	destroy_workqueue
	.fnend
	.size	gether_exit, .-gether_exit
	.text
	.align	2
	.syntax unified
	.arm
	.fpu softvfp
	.type	qdss_function_cleanup, %function
qdss_function_cleanup:
	.fnstart
	@ args = 0, pretend = 0, frame = 0
	@ frame_needed = 0, uses_anonymous_args = 0
	strd	r4, [sp, #-32]!
	.save {r4, r5, r6, r7, r8, r9, r10, lr}
	movw	r5, #:lower16:.LANCHOR1
	movt	r5, #:upper16:.LANCHOR1
	strd	r6, [sp, #8]
	ldr	r4, [r5, #312]!
	strd	r8, [sp, #16]
	str	r10, [sp, #24]
	str	lr, [sp, #28]
	cmp	r4, r5
	ldr	r6, [r4]
	beq	.L1475
	ldr	r8, .L1481
	mov	r10, #256
	mov	r9, #512
	b	.L1479
.L1477:
	bl	_raw_spin_unlock_irqrestore
	cmp	r6, r5
	ldr	r3, [r6]
	beq	.L1475
.L1478:
	mov	r4, r6
	mov	r6, r3
.L1479:
	mov	r0, r8
	bl	_raw_spin_lock_irqsave
	mov	r7, r0
	ldr	r0, [r4, #80]
	bl	destroy_workqueue
	ldr	r3, [r4, #12]
	mov	r1, r7
	mov	r0, r8
	cmp	r3, #0
	bne	.L1477
	ldrd	r2, [r4]
	sub	r0, r4, #108
	str	r3, [r2, #4]
	str	r2, [r3]
	str	r10, [r4]
	str	r9, [r4, #4]
	bl	kfree
	mov	r1, r7
	mov	r0, r8
	bl	_raw_spin_unlock_irqrestore
	cmp	r6, r5
	ldr	r3, [r6]
	bne	.L1478
.L1475:
	ldrd	r4, [sp]
	ldrd	r6, [sp, #8]
	ldrd	r8, [sp, #16]
	ldr	r10, [sp, #24]
	add	sp, sp, #28
	ldr	pc, [sp], #4
.L1482:
	.align	2
.L1481:
	.word	.LANCHOR0+2272
	.fnend
	.size	qdss_function_cleanup, .-qdss_function_cleanup
	.section	.rodata.str1.4
	.align	2
.LC102:
	.ascii	"rmnet command error %d\012\000"
	.align	2
.LC103:
	.ascii	"rmnet control smd write failed\012\000"
	.align	2
.LC104:
	.ascii	"rmnet QMI pool is empty\012\000"
	.text
	.align	2
	.syntax unified
	.arm
	.fpu softvfp
	.type	rmnet_smd_command_complete, %function
rmnet_smd_command_complete:
	.fnstart
	@ args = 0, pretend = 0, frame = 0
	@ frame_needed = 0, uses_anonymous_args = 0
	strd	r4, [sp, #-24]!
	.save {r4, r5, r6, r7, r8, lr}
	strd	r6, [sp, #8]
	str	r8, [sp, #16]
	str	lr, [sp, #20]
	ldr	r4, [r1, #32]
	ldr	r2, [r1, #44]
	ldr	r8, [r4, #76]
	cmp	r2, #0
	blt	.L1491
	add	r7, r4, #156
	mov	r5, r1
	mov	r0, r7
	bl	_raw_spin_lock
	ldr	r2, [r4, #300]
	ldr	r3, [r4, #440]
	cmp	r2, #0
	add	r3, r3, #1
	str	r3, [r4, #440]
	beq	.L1492
.L1485:
	mov	r3, r4
	ldr	r6, [r3, #100]!
	cmp	r6, r3
	beq	.L1493
	ldrd	r2, [r6]
	mov	ip, #256
	mov	r1, #512
	mov	r0, r7
	str	r3, [r2, #4]
	str	r2, [r3]
	str	ip, [r6]
	str	r1, [r6, #4]
	bl	_raw_spin_unlock
	ldr	r0, [r6, #-8]
	ldr	r1, [r5]
	ldr	r2, [r5, #48]
	bl	memcpy
	ldr	r3, [r5, #48]
	mov	r0, r7
	str	r3, [r6, #-4]
	bl	_raw_spin_lock
	ldr	r3, [r4, #120]
	add	r2, r4, #116
	mov	r0, r7
	str	r6, [r4, #120]
	strd	r2, [r6]
	str	r6, [r3]
.L1490:
	ldrd	r4, [sp]
	ldrd	r6, [sp, #8]
	ldr	r8, [sp, #16]
	ldr	lr, [sp, #20]
	add	sp, sp, #24
	b	_raw_spin_unlock
.L1492:
	ldr	r0, [r4, #252]
	bl	smd_write_avail
	ldr	r3, [r5, #48]
	cmp	r0, r3
	strcc	r3, [r4, #300]
	bcc	.L1485
	mov	r0, r7
	bl	_raw_spin_unlock
	ldr	r1, [r5]
	ldr	r2, [r5, #48]
	ldr	r0, [r4, #252]
	bl	smd_write
	ldr	r3, [r5, #48]
	cmp	r3, r0
	bne	.L1494
.L1487:
	mov	r0, r7
	bl	_raw_spin_lock
	ldr	r3, [r4, #444]
	mov	r0, r7
	add	r3, r3, #1
	str	r3, [r4, #444]
	b	.L1490
.L1491:
	ldr	r0, [r8]
	movw	r1, #:lower16:.LC102
	movt	r1, #:upper16:.LC102
	ldrd	r4, [sp]
	ldrd	r6, [sp, #8]
	ldr	r8, [sp, #16]
	add	r0, r0, #32
	ldr	lr, [sp, #20]
	add	sp, sp, #24
	b	dev_err
.L1493:
	mov	r0, r7
	bl	_raw_spin_unlock
	ldr	r0, [r8]
	movw	r1, #:lower16:.LC104
	movt	r1, #:upper16:.LC104
	ldrd	r4, [sp]
	ldrd	r6, [sp, #8]
	ldr	r8, [sp, #16]
	add	r0, r0, #32
	ldr	lr, [sp, #20]
	add	sp, sp, #24
	b	dev_err
.L1494:
	ldr	r0, [r8]
	movw	r1, #:lower16:.LC103
	movt	r1, #:upper16:.LC103
	add	r0, r0, #32
	bl	dev_err
	b	.L1487
	.fnend
	.size	rmnet_smd_command_complete, .-rmnet_smd_command_complete
	.section	.rodata.str1.4
	.align	2
.LC105:
	.ascii	"RMNET %s response error %d, %d/%d\012\000"
	.align	2
.LC106:
	.ascii	"rmnet data smd write failed\012\000"
	.text
	.align	2
	.syntax unified
	.arm
	.fpu softvfp
	.type	rmnet_smd_complete_epout, %function
rmnet_smd_complete_epout:
	.fnstart
	@ args = 0, pretend = 0, frame = 0
	@ frame_needed = 0, uses_anonymous_args = 0
	strd	r4, [sp, #-20]!
	.save {r4, r5, r6, r7, lr}
	mov	r4, r1
	strd	r6, [sp, #8]
	str	lr, [sp, #16]
	ldr	r5, [r1, #32]
	.pad #12
	sub	sp, sp, #12
	ldr	r3, [r1, #44]
	ldr	r6, [r5, #76]
	cmn	r3, #104
	beq	.L1496
	cmp	r3, #0
	beq	.L1497
	cmn	r3, #108
	beq	.L1496
	ldr	r7, [r6]
	movw	r1, #:lower16:.LC105
	add	r6, r5, #156
	ldr	lr, [r4, #4]
	movt	r1, #:upper16:.LC105
	ldr	ip, [r4, #48]
	ldr	r2, [r0, #4]
	add	r0, r7, #32
	stm	sp, {ip, lr}
	bl	dev_err
.L1507:
	mov	r0, r6
	bl	_raw_spin_lock
	add	r2, r4, #36
	add	r1, r5, #140
	ldr	r3, [r5, #144]
	mov	r0, r6
	str	r2, [r5, #144]
.L1506:
	str	r1, [r4, #36]
	str	r3, [r4, #40]
	str	r2, [r3]
	add	sp, sp, #12
	@ sp needed
	ldrd	r4, [sp]
	ldrd	r6, [sp, #8]
	ldr	lr, [sp, #16]
	add	sp, sp, #20
	b	_raw_spin_unlock
.L1496:
	add	r6, r5, #156
	b	.L1507
.L1497:
	add	r7, r5, #156
	mov	r0, r7
	bl	_raw_spin_lock
	ldr	r2, [r5, #364]
	ldr	r3, [r5, #424]
	cmp	r2, #0
	add	r3, r3, #1
	str	r3, [r5, #424]
	bne	.L1499
	ldr	r0, [r5, #316]
	bl	smd_write_avail
	ldr	r3, [r4, #48]
	cmp	r0, r3
	strcc	r3, [r5, #364]
	bcc	.L1499
	mov	r0, r7
	bl	_raw_spin_unlock
	ldr	r1, [r4]
	ldr	r2, [r4, #48]
	ldr	r0, [r5, #316]
	bl	smd_write
	ldr	r3, [r4, #48]
	cmp	r3, r0
	bne	.L1508
.L1501:
	mov	r0, r7
	bl	_raw_spin_lock
	ldr	r2, [r5, #144]
	add	r1, r4, #36
	add	ip, r5, #140
	ldr	r3, [r5, #428]
	mov	r0, r7
	str	r1, [r5, #144]
	add	r3, r3, #1
	str	r3, [r5, #428]
	str	ip, [r4, #36]
	str	r2, [r4, #40]
	str	r1, [r2]
	bl	_raw_spin_unlock
	mov	r0, r5
	add	sp, sp, #12
	@ sp needed
	ldrd	r4, [sp]
	ldrd	r6, [sp, #8]
	ldr	lr, [sp, #16]
	add	sp, sp, #20
	b	rmnet_smd_start_rx
.L1499:
	add	r2, r4, #36
	add	r1, r5, #148
	ldr	r3, [r5, #152]
	mov	r0, r7
	str	r2, [r5, #152]
	b	.L1506
.L1508:
	ldr	r0, [r6]
	movw	r1, #:lower16:.LC106
	movt	r1, #:upper16:.LC106
	add	r0, r0, #32
	bl	dev_err
	b	.L1501
	.fnend
	.size	rmnet_smd_complete_epout, .-rmnet_smd_complete_epout
	.section	.rodata.str1.4
	.align	2
.LC107:
	.ascii	"rmnet SMD data write failed\012\000"
	.text
	.align	2
	.syntax unified
	.arm
	.fpu softvfp
	.type	rmnet_data_rx_tlet, %function
rmnet_data_rx_tlet:
	.fnstart
	@ args = 0, pretend = 0, frame = 8
	@ frame_needed = 0, uses_anonymous_args = 0
	strd	r4, [sp, #-36]!
	.save {r4, r5, r6, r7, r8, r9, r10, fp, lr}
	mov	r5, r0
	strd	r6, [sp, #8]
	add	r6, r0, #156
	add	r7, r0, #148
	strd	r8, [sp, #16]
	strd	r10, [sp, #24]
	str	lr, [sp, #32]
	ldr	r3, [r0, #76]
	.pad #12
	sub	sp, sp, #12
	mov	r0, r6
	str	r3, [sp, #4]
	bl	_raw_spin_lock_irqsave
	ldr	r4, [r5, #148]
	mov	fp, r0
	cmp	r4, r7
	beq	.L1514
	add	r3, r5, #140
	mov	r9, #256
	mov	r8, #512
	str	r3, [sp]
	b	.L1510
.L1512:
	ldrd	r2, [r4]
	str	r3, [r2, #4]
	str	r2, [r3]
	str	r9, [r4]
	str	r8, [r4, #4]
	bl	_raw_spin_unlock_irqrestore
	ldr	r1, [r4, #-36]
	ldr	r2, [r4, #12]
	ldr	r0, [r5, #316]
	bl	smd_write
	mov	r10, r0
	mov	r0, r6
	bl	_raw_spin_lock_irqsave
	ldr	r1, [r4, #12]
	mov	fp, r0
	cmp	r1, r10
	bne	.L1517
	ldr	r3, [sp]
	ldr	r2, [r5, #428]
	ldr	r1, [r5, #144]
	str	r4, [r5, #144]
	add	r2, r2, #1
	str	r2, [r5, #428]
	str	r3, [r4]
	str	r1, [r4, #4]
	str	r4, [r1]
	ldr	r4, [r5, #148]
	cmp	r7, r4
	beq	.L1514
.L1510:
	ldr	r0, [r5, #316]
	bl	smd_write_avail
	ldr	r2, [r4, #12]
	mov	ip, r0
	mov	r1, fp
	mov	r0, r6
	cmp	ip, r2
	bcs	.L1512
	str	r2, [r5, #364]
.L1511:
	mov	r0, r6
	mov	r1, fp
	bl	_raw_spin_unlock_irqrestore
	mov	r0, r5
	add	sp, sp, #12
	@ sp needed
	ldrd	r4, [sp]
	ldrd	r6, [sp, #8]
	ldrd	r8, [sp, #16]
	ldrd	r10, [sp, #24]
	ldr	lr, [sp, #32]
	add	sp, sp, #36
	b	rmnet_smd_start_rx
.L1514:
	mov	r2, #0
	str	r2, [r5, #364]
	b	.L1511
.L1517:
	ldr	r3, [sp, #4]
	movw	r1, #:lower16:.LC107
	movt	r1, #:upper16:.LC107
	ldr	r0, [r3]
	add	r0, r0, #32
	bl	dev_err
	b	.L1511
	.fnend
	.size	rmnet_data_rx_tlet, .-rmnet_data_rx_tlet
	.align	2
	.syntax unified
	.arm
	.fpu softvfp
	.type	rmnet_control_rx_tlet, %function
rmnet_control_rx_tlet:
	.fnstart
	@ args = 0, pretend = 0, frame = 8
	@ frame_needed = 0, uses_anonymous_args = 0
	strd	r4, [sp, #-36]!
	.save {r4, r5, r6, r7, r8, r9, r10, fp, lr}
	mov	r5, r0
	strd	r6, [sp, #8]
	add	r6, r0, #156
	add	r7, r0, #116
	strd	r8, [sp, #16]
	strd	r10, [sp, #24]
	str	lr, [sp, #32]
	ldr	r3, [r0, #76]
	.pad #12
	sub	sp, sp, #12
	mov	r0, r6
	str	r3, [sp, #4]
	bl	_raw_spin_lock_irqsave
	ldr	r4, [r5, #116]
	mov	fp, r0
	cmp	r4, r7
	beq	.L1523
	add	r3, r5, #100
	mov	r9, #256
	mov	r8, #512
	str	r3, [sp]
	b	.L1519
.L1521:
	ldrd	r2, [r4]
	str	r3, [r2, #4]
	str	r2, [r3]
	str	r9, [r4]
	str	r8, [r4, #4]
	ldr	r3, [r5, #440]
	add	r3, r3, #1
	str	r3, [r5, #440]
	bl	_raw_spin_unlock_irqrestore
	ldmdb	r4, {r1, r2}
	ldr	r0, [r5, #252]
	bl	smd_write
	mov	r10, r0
	mov	r0, r6
	bl	_raw_spin_lock_irqsave
	ldr	r1, [r4, #-4]
	mov	fp, r0
	cmp	r1, r10
	bne	.L1526
	ldr	r3, [sp]
	ldr	r2, [r5, #444]
	ldr	r1, [r5, #104]
	str	r4, [r5, #104]
	add	r2, r2, #1
	str	r2, [r5, #444]
	str	r3, [r4]
	str	r1, [r4, #4]
	str	r4, [r1]
	ldr	r4, [r5, #116]
	cmp	r7, r4
	beq	.L1523
.L1519:
	ldr	r0, [r5, #252]
	bl	smd_write_avail
	ldr	r2, [r4, #-4]
	mov	ip, r0
	mov	r1, fp
	mov	r0, r6
	cmp	ip, r2
	bge	.L1521
	str	r2, [r5, #300]
.L1520:
	mov	r1, fp
	mov	r0, r6
	add	sp, sp, #12
	@ sp needed
	ldrd	r4, [sp]
	ldrd	r6, [sp, #8]
	ldrd	r8, [sp, #16]
	ldrd	r10, [sp, #24]
	ldr	lr, [sp, #32]
	add	sp, sp, #36
	b	_raw_spin_unlock_irqrestore
.L1523:
	mov	r2, #0
	str	r2, [r5, #300]
	b	.L1520
.L1526:
	ldr	r3, [sp, #4]
	movw	r1, #:lower16:.LC103
	movt	r1, #:upper16:.LC103
	ldr	r0, [r3]
	add	r0, r0, #32
	bl	dev_err
	b	.L1520
	.fnend
	.size	rmnet_control_rx_tlet, .-rmnet_control_rx_tlet
	.section	.rodata.str1.4
	.align	2
.LC108:
	.ascii	"<4>%s: port:%pK port#%d Unexpected Rx Status:%d\012"
	.ascii	"\000"
	.align	2
.LC109:
	.ascii	"<3>%s: smd write failed err:%d\012\000"
	.text
	.align	2
	.syntax unified
	.arm
	.fpu softvfp
	.type	gsmd_rx_push, %function
gsmd_rx_push:
	.fnstart
	@ args = 0, pretend = 0, frame = 8
	@ frame_needed = 0, uses_anonymous_args = 0
	strd	r4, [sp, #-36]!
	.save {r4, r5, r6, r7, r8, r9, r10, fp, lr}
	sub	r3, r0, #28
	mov	r5, r0
	strd	r6, [sp, #8]
	strd	r8, [sp, #16]
	sub	r9, r0, #24
	strd	r10, [sp, #24]
	str	lr, [sp, #32]
	ldr	r6, [r0, #44]
	.pad #20
	sub	sp, sp, #20
	mov	r0, r9
	str	r3, [sp, #12]
	bl	_raw_spin_lock_irq
	ldr	r0, [r6]
	cmp	r0, #0
	beq	.L1529
	movw	r10, #:lower16:.LC108
	sub	r7, r5, #8
	mov	r8, #0
	movt	r10, #:upper16:.LC108
	b	.L1528
.L1536:
	ldr	r3, [r4, #8]
	cmn	r3, #108
	beq	.L1529
	cmp	r3, #0
	bne	.L1560
.L1530:
	bl	smd_write_avail
	cmp	r0, #0
	beq	.L1529
	ldr	fp, [r4, #12]
	cmp	fp, #0
	beq	.L1532
	ldr	r3, [r5, #-20]
	ldr	r1, [r4, #-36]
	ldr	r0, [r6]
	cmp	r3, #0
	subne	fp, fp, r3
	addne	r1, r1, r3
	mov	r2, fp
	bl	smd_write
	cmp	r0, #0
	blt	.L1561
	cmp	r0, fp
	bne	.L1562
	ldr	r2, [r5, #136]
	add	r2, r2, fp
	str	r2, [r5, #136]
.L1532:
	str	r8, [r5, #-20]
	ldm	r4, {r1, r2}
	mov	r3, r5
	str	r2, [r1, #4]
	str	r1, [r2]
	ldr	r2, [r3, #-16]!
	str	r4, [r2, #4]
	strd	r2, [r4]
	str	r4, [r5, #-16]
	ldr	r0, [r6]
	cmp	r0, #0
	beq	.L1529
.L1528:
	ldr	r4, [r5, #-8]
	cmp	r7, r4
	bne	.L1536
.L1529:
	mov	r0, r9
	bl	_raw_spin_unlock_irq
	ldr	r0, [sp, #12]
	add	sp, sp, #20
	@ sp needed
	ldrd	r4, [sp]
	ldrd	r6, [sp, #8]
	ldrd	r8, [sp, #16]
	ldrd	r10, [sp, #24]
	ldr	lr, [sp, #32]
	add	sp, sp, #36
	b	gsmd_start_rx
.L1562:
	ldr	r2, [r5, #-20]
	add	r3, r2, r0
	str	r3, [r5, #-20]
	b	.L1529
.L1560:
	ldr	r1, .L1563
	mov	r0, r10
	str	r3, [sp]
	ldr	r3, [r5, #-28]
	ldr	r2, [sp, #12]
	bl	printk
	ldr	r0, [r6]
	b	.L1530
.L1561:
	mov	r3, r0
	movw	r0, #:lower16:.LC109
	ldr	r1, .L1563
	mov	r2, r3
	movt	r0, #:upper16:.LC109
	bl	printk
	b	.L1529
.L1564:
	.align	2
.L1563:
	.word	.LANCHOR2+672
	.fnend
	.size	gsmd_rx_push, .-gsmd_rx_push
	.section	.rodata.str1.4
	.align	2
.LC110:
	.ascii	"<3>%s: smd_write failed err:%d\012\000"
	.text
	.align	2
	.syntax unified
	.arm
	.fpu softvfp
	.type	grmnet_ctrl_smd_write_w, %function
grmnet_ctrl_smd_write_w:
	.fnstart
	@ args = 0, pretend = 0, frame = 0
	@ frame_needed = 0, uses_anonymous_args = 0
	strd	r4, [sp, #-36]!
	.save {r4, r5, r6, r7, r8, r9, r10, fp, lr}
	mov	r5, r0
	strd	r6, [sp, #8]
	strd	r8, [sp, #16]
	strd	r10, [sp, #24]
	str	lr, [sp, #32]
	ldr	r7, [r0, #16]
	.pad #4
	sub	sp, sp, #4
	add	r7, r7, #108
	mov	r0, r7
	bl	_raw_spin_lock_irqsave
	mov	r6, r0
	ldr	r0, [r5, #-68]
	cmp	r0, #0
	beq	.L1566
	sub	r9, r5, #28
	mov	fp, #256
	b	.L1568
.L1575:
	bl	smd_write_avail
	ldr	r3, [r4, #-4]
	mov	r2, r0
	mov	r1, r6
	mov	r0, r7
	cmp	r2, r3
	blt	.L1566
	ldrd	r2, [r4]
	str	r3, [r2, #4]
	str	r2, [r3]
	mov	r3, #512
	str	fp, [r4]
	str	r3, [r4, #4]
	bl	_raw_spin_unlock_irqrestore
	ldr	r0, [r5, #-68]
	ldmdb	r4, {r1, r2}
	bl	smd_write
	mov	r10, r0
	mov	r0, r7
	bl	_raw_spin_lock_irqsave
	ldr	r3, [r4, #-4]
	mov	r6, r0
	cmp	r3, r10
	bne	.L1574
	ldr	r0, [r4, #-8]
	bl	kfree
	mov	r0, r8
	bl	kfree
	ldr	r0, [r5, #-68]
	ldr	r3, [r5, #24]
	cmp	r0, #0
	add	r3, r3, #1
	str	r3, [r5, #24]
	beq	.L1566
.L1568:
	ldr	r4, [r5, #-28]
	cmp	r9, r4
	sub	r8, r4, #8
	bne	.L1575
.L1566:
	mov	r1, r6
	mov	r0, r7
	add	sp, sp, #4
	@ sp needed
	ldrd	r4, [sp]
	ldrd	r6, [sp, #8]
	ldrd	r8, [sp, #16]
	ldrd	r10, [sp, #24]
	ldr	lr, [sp, #32]
	add	sp, sp, #36
	b	_raw_spin_unlock_irqrestore
.L1574:
	movw	r0, #:lower16:.LC110
	ldr	r1, .L1576
	mov	r2, r10
	movt	r0, #:upper16:.LC110
	bl	printk
	ldr	r0, [r4, #-8]
	bl	kfree
	mov	r0, r8
	bl	kfree
	b	.L1566
.L1577:
	.align	2
.L1576:
	.word	.LANCHOR2+688
	.fnend
	.size	grmnet_ctrl_smd_write_w, .-grmnet_ctrl_smd_write_w
	.section	.rodata.str1.4
	.align	2
.LC111:
	.ascii	"rmnet_mux SMD data write failed\012\000"
	.text
	.align	2
	.syntax unified
	.arm
	.fpu softvfp
	.type	rmnet_mux_smd_data_rx_tlet, %function
rmnet_mux_smd_data_rx_tlet:
	.fnstart
	@ args = 0, pretend = 0, frame = 8
	@ frame_needed = 0, uses_anonymous_args = 0
	strd	r4, [sp, #-36]!
	.save {r4, r5, r6, r7, r8, r9, r10, fp, lr}
	mov	r5, r0
	strd	r6, [sp, #8]
	add	r6, r0, #356
	strd	r8, [sp, #16]
	strd	r10, [sp, #24]
	str	lr, [sp, #32]
	ldr	r3, [r0, #76]
	.pad #12
	sub	sp, sp, #12
	mov	r0, r6
	str	r3, [sp, #4]
	bl	_raw_spin_lock_irqsave
	ldr	r2, [r5, #360]
	mov	fp, r0
	cmp	r2, #0
	beq	.L1579
	add	r3, r5, #104
	add	r7, r5, #112
	mov	r9, #256
	mov	r8, #512
	str	r3, [sp]
	b	.L1583
.L1580:
	ldr	r0, [r5, #120]
	bl	smd_write_avail
	ldr	r2, [r4, #12]
	mov	ip, r0
	mov	r1, fp
	mov	r0, r6
	cmp	ip, r2
	bcc	.L1589
	ldrd	r2, [r4]
	str	r3, [r2, #4]
	str	r2, [r3]
	str	r9, [r4]
	str	r8, [r4, #4]
	bl	_raw_spin_unlock_irqrestore
	ldr	r1, [r4, #-36]
	ldr	r2, [r4, #12]
	ldr	r0, [r5, #120]
	bl	smd_write
	mov	r10, r0
	mov	r0, r6
	bl	_raw_spin_lock_irqsave
	ldr	r1, [r4, #12]
	mov	fp, r0
	cmp	r1, r10
	bne	.L1590
	ldr	r3, [sp]
	ldr	r2, [r5, #388]
	ldr	r1, [r5, #108]
	str	r4, [r5, #108]
	add	r2, r2, #1
	str	r2, [r5, #388]
	str	r3, [r4]
	str	r1, [r4, #4]
	str	r4, [r1]
	ldr	r2, [r5, #360]
	cmp	r2, #0
	beq	.L1579
.L1583:
	ldr	r4, [r5, #112]
	cmp	r7, r4
	bne	.L1580
	mov	r2, #0
	str	r2, [r5, #168]
.L1579:
	mov	r0, r6
	mov	r1, fp
	bl	_raw_spin_unlock_irqrestore
	mov	r0, r5
	add	sp, sp, #12
	@ sp needed
	ldrd	r4, [sp]
	ldrd	r6, [sp, #8]
	ldrd	r8, [sp, #16]
	ldrd	r10, [sp, #24]
	ldr	lr, [sp, #32]
	add	sp, sp, #36
	b	rmnet_mux_smd_start_rx
.L1589:
	str	r2, [r5, #168]
	b	.L1579
.L1590:
	ldr	r3, [sp, #4]
	movw	r1, #:lower16:.LC111
	movt	r1, #:upper16:.LC111
	ldr	r0, [r3]
	add	r0, r0, #32
	bl	dev_err
	b	.L1579
	.fnend
	.size	rmnet_mux_smd_data_rx_tlet, .-rmnet_mux_smd_data_rx_tlet
	.section	.rodata.str1.4
	.align	2
.LC112:
	.ascii	"RMNET_MUX %s response error %d, %d/%d\012\000"
	.align	2
.LC113:
	.ascii	"rmnet_mux data smd write failed\012\000"
	.text
	.align	2
	.syntax unified
	.arm
	.fpu softvfp
	.type	rmnet_mux_smd_complete_epout, %function
rmnet_mux_smd_complete_epout:
	.fnstart
	@ args = 0, pretend = 0, frame = 0
	@ frame_needed = 0, uses_anonymous_args = 0
	strd	r4, [sp, #-20]!
	.save {r4, r5, r6, r7, lr}
	mov	r4, r1
	strd	r6, [sp, #8]
	mov	r6, r0
	str	lr, [sp, #16]
	ldr	r5, [r1, #32]
	.pad #12
	sub	sp, sp, #12
	ldr	r3, [r5, #352]
	cmp	r3, #0
	beq	.L1604
	ldr	r3, [r1, #44]
	ldr	r7, [r5, #76]
	cmn	r3, #104
	beq	.L1593
	cmp	r3, #0
	beq	.L1594
	cmn	r3, #108
	beq	.L1593
	ldr	r2, [r0, #4]
	movw	r1, #:lower16:.LC112
	ldr	r0, [r7]
	movt	r1, #:upper16:.LC112
	add	r7, r5, #356
	ldr	lr, [r4, #4]
	ldr	ip, [r4, #48]
	add	r0, r0, #32
	stm	sp, {ip, lr}
	bl	dev_err
	mov	r0, r7
	bl	_raw_spin_lock
	add	r2, r4, #36
	add	r1, r5, #104
	ldr	r3, [r5, #108]
	mov	r0, r7
	str	r2, [r5, #108]
.L1603:
	str	r1, [r4, #36]
	str	r3, [r4, #40]
	str	r2, [r3]
	add	sp, sp, #12
	@ sp needed
	ldrd	r4, [sp]
	ldrd	r6, [sp, #8]
	ldr	lr, [sp, #16]
	add	sp, sp, #20
	b	_raw_spin_unlock
.L1594:
	add	r6, r5, #356
	mov	r0, r6
	bl	_raw_spin_lock
	ldr	r3, [r5, #168]
	cmp	r3, #0
	bne	.L1596
	ldr	r0, [r5, #120]
	bl	smd_write_avail
	ldr	r3, [r4, #48]
	cmp	r0, r3
	strcc	r3, [r5, #168]
	bcs	.L1605
.L1596:
	add	r2, r4, #36
	add	r1, r5, #112
	ldr	r3, [r5, #116]
	mov	r0, r6
	str	r2, [r5, #116]
	b	.L1603
.L1593:
	add	r6, r5, #356
	mov	r0, r6
	bl	_raw_spin_lock
	add	r2, r4, #36
	add	r1, r5, #104
	ldr	r3, [r5, #108]
	mov	r0, r6
	str	r2, [r5, #108]
	b	.L1603
.L1604:
	ldr	r0, [r1]
	bl	kfree
	ldr	r3, [r6, #8]
	mov	r1, r4
	mov	r0, r6
	ldr	r3, [r3, #12]
	add	sp, sp, #12
	@ sp needed
	ldrd	r4, [sp]
	ldrd	r6, [sp, #8]
	ldr	lr, [sp, #16]
	add	sp, sp, #20
	bx	r3	@ indirect register sibling call
.L1605:
	mov	r0, r6
	bl	_raw_spin_unlock
	ldr	r1, [r4]
	ldr	r2, [r4, #48]
	ldr	r0, [r5, #120]
	bl	smd_write
	ldr	r3, [r4, #48]
	cmp	r3, r0
	beq	.L1598
	ldr	r0, [r7]
	movw	r1, #:lower16:.LC113
	movt	r1, #:upper16:.LC113
	add	r0, r0, #32
	bl	dev_err
.L1598:
	ldr	r3, [r5, #388]
	mov	r0, r6
	add	r3, r3, #1
	str	r3, [r5, #388]
	bl	_raw_spin_lock
	ldr	r3, [r5, #108]
	add	r2, r4, #36
	add	r1, r5, #104
	mov	r0, r6
	str	r2, [r5, #108]
	str	r1, [r4, #36]
	str	r3, [r4, #40]
	str	r2, [r3]
	bl	_raw_spin_unlock
	mov	r0, r5
	add	sp, sp, #12
	@ sp needed
	ldrd	r4, [sp]
	ldrd	r6, [sp, #8]
	ldr	lr, [sp, #16]
	add	sp, sp, #20
	b	rmnet_mux_smd_start_rx
	.fnend
	.size	rmnet_mux_smd_complete_epout, .-rmnet_mux_smd_complete_epout
	.section	.rodata.str1.4
	.align	2
.LC114:
	.ascii	"rmnet data tx ep error %d\012\000"
	.text
	.align	2
	.syntax unified
	.arm
	.fpu softvfp
	.type	rmnet_smd_complete_epin, %function
rmnet_smd_complete_epin:
	.fnstart
	@ args = 0, pretend = 0, frame = 0
	@ frame_needed = 0, uses_anonymous_args = 0
	strd	r4, [sp, #-16]!
	.save {r4, r5, r6, lr}
	mov	r4, r1
	str	r6, [sp, #8]
	str	lr, [sp, #12]
	ldr	r5, [r1, #32]
	ldr	r2, [r1, #44]
	cmn	r2, #104
	beq	.L1607
	cmp	r2, #0
	beq	.L1608
	cmn	r2, #108
	beq	.L1607
	ldr	r3, [r5, #76]
	movw	r1, #:lower16:.LC114
	movt	r1, #:upper16:.LC114
	ldr	r0, [r3]
	add	r0, r0, #32
	bl	dev_err
.L1608:
	add	r6, r5, #156
	mov	r0, r6
	bl	_raw_spin_lock
	ldr	r2, [r5, #132]
	add	r3, r5, #132
	cmp	r3, r2
	beq	.L1623
	ldr	r2, [r5, #136]
	add	r1, r4, #36
	str	r1, [r5, #136]
	str	r3, [r4, #36]
	str	r2, [r4, #40]
	str	r1, [r2]
	ldr	r3, [r5, #416]
	add	r3, r3, #1
	str	r3, [r5, #416]
.L1613:
	mov	r0, r6
.L1622:
	ldrd	r4, [sp]
	ldr	r6, [sp, #8]
	ldr	lr, [sp, #12]
	add	sp, sp, #16
	b	_raw_spin_unlock
.L1623:
	ldr	r2, [r5, #136]
	add	ip, r4, #36
	add	r1, r5, #324
	mov	r0, #0
	str	ip, [r5, #136]
	str	r3, [r4, #36]
	str	r2, [r4, #40]
	add	r4, r5, #320
	str	ip, [r2]
	ldr	r3, [r5, #416]
	add	r3, r3, #1
	str	r3, [r5, #416]
	bl	_test_and_set_bit
	cmp	r0, #0
	bne	.L1613
	mov	r0, r4
	bl	__tasklet_schedule
	b	.L1613
.L1607:
	add	r6, r5, #156
	mov	r0, r6
	bl	_raw_spin_lock
	ldr	r3, [r5, #136]
	add	r2, r4, #36
	add	r1, r5, #132
	mov	r0, r6
	str	r2, [r5, #136]
	str	r1, [r4, #36]
	str	r3, [r4, #40]
	str	r2, [r3]
	b	.L1622
	.fnend
	.size	rmnet_smd_complete_epin, .-rmnet_smd_complete_epin
	.section	.rodata.str1.4
	.align	2
.LC115:
	.ascii	"rmnet_mux data tx ep error %d\012\000"
	.text
	.align	2
	.syntax unified
	.arm
	.fpu softvfp
	.type	rmnet_mux_smd_complete_epin, %function
rmnet_mux_smd_complete_epin:
	.fnstart
	@ args = 0, pretend = 0, frame = 0
	@ frame_needed = 0, uses_anonymous_args = 0
	strd	r4, [sp, #-16]!
	.save {r4, r5, r6, lr}
	mov	r4, r1
	str	r6, [sp, #8]
	str	lr, [sp, #12]
	ldr	r5, [r1, #32]
	ldr	r3, [r5, #352]
	cmp	r3, #0
	beq	.L1639
	ldr	r2, [r1, #44]
	cmn	r2, #104
	beq	.L1626
	cmp	r2, #0
	beq	.L1627
	cmn	r2, #108
	beq	.L1626
	ldr	r3, [r5, #76]
	movw	r1, #:lower16:.LC115
	movt	r1, #:upper16:.LC115
	ldr	r0, [r3]
	add	r0, r0, #32
	bl	dev_err
.L1627:
	add	r6, r5, #356
	mov	r0, r6
	bl	_raw_spin_lock
	ldr	r2, [r5, #96]
	add	r3, r5, #96
	cmp	r3, r2
	ldr	r2, [r5, #100]
	beq	.L1629
	add	r1, r4, #36
	str	r1, [r5, #100]
	str	r3, [r4, #36]
	str	r2, [r4, #40]
	str	r1, [r2]
.L1630:
	mov	r0, r6
.L1638:
	ldrd	r4, [sp]
	ldr	r6, [sp, #8]
	ldr	lr, [sp, #12]
	add	sp, sp, #16
	b	_raw_spin_unlock
.L1626:
	add	r6, r5, #356
	mov	r0, r6
	bl	_raw_spin_lock
	ldr	r3, [r5, #100]
	add	r2, r4, #36
	add	r1, r5, #96
	mov	r0, r6
	str	r2, [r5, #100]
	str	r1, [r4, #36]
	str	r3, [r4, #40]
	str	r2, [r3]
	b	.L1638
.L1639:
	mov	r6, r0
	ldr	r0, [r1]
	bl	kfree
	ldr	r3, [r6, #8]
	mov	r1, r4
	mov	r0, r6
	ldrd	r4, [sp]
	ldr	r6, [sp, #8]
	ldr	lr, [sp, #12]
	add	sp, sp, #16
	ldr	r3, [r3, #12]
	bx	r3	@ indirect register sibling call
.L1629:
	add	ip, r4, #36
	add	r1, r5, #128
	mov	r0, #0
	add	r5, r5, #124
	str	ip, [r5, #-24]
	str	r3, [r4, #36]
	str	r2, [r4, #40]
	str	ip, [r2]
	bl	_test_and_set_bit
	cmp	r0, #0
	bne	.L1630
	mov	r0, r5
	bl	__tasklet_schedule
	b	.L1630
	.fnend
	.size	rmnet_mux_smd_complete_epin, .-rmnet_mux_smd_complete_epin
	.align	2
	.syntax unified
	.arm
	.fpu softvfp
	.type	rmnet_smd_setup, %function
rmnet_smd_setup:
	.fnstart
	@ args = 0, pretend = 0, frame = 8
	@ frame_needed = 0, uses_anonymous_args = 0
	strd	r4, [sp, #-36]!
	.save {r4, r5, r6, r7, r8, r9, r10, fp, lr}
	strd	r6, [sp, #8]
	strd	r8, [sp, #16]
	strd	r10, [sp, #24]
	str	lr, [sp, #32]
	ldr	r2, [r0, #20]
	.pad #28
	sub	sp, sp, #28
	ldr	r3, [r0, #160]
	ldrh	r9, [r1, #2]	@ unaligned
	ldrh	r5, [r1, #6]	@ unaligned
	ldr	r8, [r2, #24]
	cmp	r3, #0
	ldr	r7, [r8, #4]
	beq	.L1650
	ldrh	r3, [r1]	@ unaligned
	movw	r2, #8482
	mov	r4, r0
	mov	r6, r1
	rev16	r3, r3
	uxth	r3, r3
	cmp	r3, r2
	beq	.L1642
	movw	r2, #41217
	cmp	r3, r2
	beq	.L1643
	cmp	r3, #8448
	beq	.L1654
.L1652:
	mvn	r5, #94
.L1640:
	mov	r0, r5
	add	sp, sp, #28
	@ sp needed
	ldrd	r4, [sp]
	ldrd	r6, [sp, #8]
	ldrd	r8, [sp, #16]
	ldrd	r10, [sp, #24]
	add	sp, sp, #32
	ldr	pc, [sp], #4
.L1642:
	ands	r1, r9, #1
	ldr	r0, [r0, #252]
	movne	r2, #0
	movne	r1, #2
	moveq	r2, #2
	bl	smd_tiocmset
	mov	r5, r0
.L1648:
	cmp	r5, #0
	blt	.L1640
.L1644:
	ldrb	r3, [r7, #26]	@ zero_extendqisi2
	str	r5, [r7, #4]
	mov	r1, r7
	mov	r2, #32
	bfc	r3, #1, #1
	strb	r3, [r7, #26]
	ldr	r3, [r8]
	ldr	r0, [r3, #4]
	ldr	r3, [r0, #8]
	ldr	r3, [r3, #16]
	blx	r3
	subs	r5, r0, #0
	bge	.L1640
	ldr	r0, [r8]
	movw	r1, #:lower16:.LC55
	mov	r2, r5
	movt	r1, #:upper16:.LC55
	add	r0, r0, #32
	bl	dev_err
	b	.L1640
.L1654:
	movw	r3, #:lower16:rmnet_smd_command_complete
	str	r0, [r7, #32]
	movt	r3, #:upper16:rmnet_smd_command_complete
	str	r3, [r7, #28]
	b	.L1644
.L1643:
	cmp	r9, #0
	bne	.L1652
	ldrh	r3, [r1, #4]	@ unaligned
	add	r10, r0, #156
	mov	r0, r10
	str	r3, [sp, #20]
	bl	_raw_spin_lock
	mov	r2, r4
	ldr	fp, [r2, #124]!
	cmp	fp, r2
	beq	.L1655
	ldm	fp, {r1, r2}
	mov	lr, #256
	mov	ip, #512
	mov	r0, r10
	str	r2, [r1, #4]
	str	r1, [r2]
	str	lr, [fp]
	str	ip, [fp, #4]
	bl	_raw_spin_unlock
	ldmdb	fp, {r1, r2}
	ldr	r0, [r7]
	bl	memcpy
	mov	r0, r10
	ldr	r5, [fp, #-4]
	bl	_raw_spin_lock
	ldr	r1, [r4, #108]
	add	r2, r4, #108
	cmp	r2, r1
	beq	.L1646
	ldr	r1, [r4, #112]
	str	fp, [r4, #112]
	str	r2, [fp]
	str	r1, [fp, #4]
	str	fp, [r1]
.L1647:
	mov	r0, r10
	bl	_raw_spin_unlock
	movw	r3, #:lower16:rmnet_txcommand_complete
	str	r4, [r7, #32]
	movt	r3, #:upper16:rmnet_txcommand_complete
	str	r3, [r7, #28]
	b	.L1648
.L1646:
	ldr	ip, [r4, #112]
	mov	r0, r9
	add	r1, r4, #260
	str	fp, [r4, #112]
	add	r6, r4, #256
	stm	fp, {r2, ip}
	str	fp, [ip]
	bl	_test_and_set_bit
	cmp	r0, #0
	bne	.L1647
	mov	r0, r6
	bl	__tasklet_schedule
	b	.L1647
.L1650:
	mvn	r5, #106
	b	.L1640
.L1655:
	ldr	r0, [r8]
	movw	r1, #:lower16:.LC94
	str	r9, [sp]
	ldr	r3, [sp, #20]
	movt	r1, #:upper16:.LC94
	add	r0, r0, #32
	str	r3, [sp, #4]
	ldrb	r3, [r6, #1]	@ zero_extendqisi2
	ldrb	r2, [r6]	@ zero_extendqisi2
	str	r5, [sp, #8]
	mvn	r5, #94
	bl	_dev_info
	mov	r0, r10
	bl	_raw_spin_unlock
	b	.L1640
	.fnend
	.size	rmnet_smd_setup, .-rmnet_smd_setup
	.align	2
	.syntax unified
	.arm
	.fpu softvfp
	.type	rmnet_smd_unbind, %function
rmnet_smd_unbind:
	.fnstart
	@ args = 0, pretend = 0, frame = 0
	@ frame_needed = 0, uses_anonymous_args = 0
	add	r0, r1, #276
	.save {r4, lr}
	str	r4, [sp, #-8]!
	mov	r4, r1
	str	lr, [sp, #4]
	bl	tasklet_kill
	add	r0, r4, #256
	bl	tasklet_kill
	add	r0, r4, #340
	bl	tasklet_kill
	add	r0, r4, #320
	bl	tasklet_kill
	ldr	r0, [r4, #380]
	bl	flush_workqueue
	mov	r0, r4
	bl	rmnet_smd_free_buf
	mov	r3, #0
	ldr	r0, [r4, #380]
	str	r3, [r4, #80]
	str	r3, [r4, #84]
	str	r3, [r4, #88]
	bl	destroy_workqueue
	mov	r0, r4
	ldr	r4, [sp]
	ldr	lr, [sp, #4]
	add	sp, sp, #8
	b	kfree
	.fnend
	.size	rmnet_smd_unbind, .-rmnet_smd_unbind
	.section	.rodata.str1.4
	.align	2
.LC116:
	.ascii	"rmnet tx data enqueue err %d\012\000"
	.text
	.align	2
	.syntax unified
	.arm
	.fpu softvfp
	.type	rmnet_data_tx_tlet, %function
rmnet_data_tx_tlet:
	.fnstart
	@ args = 0, pretend = 0, frame = 0
	@ frame_needed = 0, uses_anonymous_args = 0
	strd	r4, [sp, #-32]!
	.save {r4, r5, r6, r7, r8, r9, r10, lr}
	mov	r5, r0
	strd	r6, [sp, #8]
	add	r7, r0, #156
	strd	r8, [sp, #16]
	mov	r9, #256
	add	r8, r0, #132
	str	r10, [sp, #24]
	str	lr, [sp, #28]
	ldr	r10, [r0, #76]
	b	.L1662
.L1669:
	ldr	r0, [r5, #316]
	bl	smd_read_avail
	mov	r3, r0
	mov	r0, r7
	cmp	r3, r6
	blt	.L1658
	bl	_raw_spin_lock_irqsave
	ldr	r4, [r5, #132]
	mov	r1, r0
	mov	ip, #512
	mov	r0, r7
	cmp	r8, r4
	beq	.L1667
	ldrd	r2, [r4]
	str	r3, [r2, #4]
	str	r2, [r3]
	stm	r4, {r9, ip}
	bl	_raw_spin_unlock_irqrestore
	mov	r2, r6
	ldr	r1, [r4, #-36]
	ldr	r0, [r5, #316]
	bl	smd_read
	str	r0, [r4, #-32]
	ldr	r0, [r5, #84]
	mov	r2, #32
	sub	r1, r4, #36
	ldr	r3, [r0, #8]
	ldr	r3, [r3, #16]
	blx	r3
	mov	r2, r0
	mov	r0, r7
	cmp	r2, #0
	bne	.L1668
	bl	_raw_spin_lock_irqsave
	ldr	r3, [r5, #420]
	mov	r1, r0
	mov	r0, r7
	add	r3, r3, #1
	str	r3, [r5, #420]
	bl	_raw_spin_unlock_irqrestore
.L1662:
	ldr	r0, [r5, #316]
	bl	smd_cur_packet_size
	subs	r6, r0, #0
	bne	.L1669
.L1658:
	ldrd	r4, [sp]
	ldrd	r6, [sp, #8]
	ldrd	r8, [sp, #16]
	ldr	r10, [sp, #24]
	add	sp, sp, #28
	ldr	pc, [sp], #4
.L1668:
	ldr	r0, [r10]
	movw	r1, #:lower16:.LC116
	movt	r1, #:upper16:.LC116
	add	r0, r0, #32
	bl	dev_err
	mov	r0, r7
	bl	_raw_spin_lock_irqsave
	ldr	r3, [r5, #136]
	mov	r1, r0
	mov	r0, r7
	str	r4, [r5, #136]
	str	r8, [r4]
	str	r3, [r4, #4]
	str	r4, [r3]
.L1667:
	ldrd	r4, [sp]
	ldrd	r6, [sp, #8]
	ldrd	r8, [sp, #16]
	ldr	r10, [sp, #24]
	ldr	lr, [sp, #28]
	add	sp, sp, #32
	b	_raw_spin_unlock_irqrestore
	.fnend
	.size	rmnet_data_tx_tlet, .-rmnet_data_tx_tlet
	.section	.rodata.str1.4
	.align	2
.LC117:
	.ascii	"rmnet QMI Tx buffers full\012\000"
	.text
	.align	2
	.syntax unified
	.arm
	.fpu softvfp
	.type	rmnet_control_tx_tlet, %function
rmnet_control_tx_tlet:
	.fnstart
	@ args = 0, pretend = 0, frame = 8
	@ frame_needed = 0, uses_anonymous_args = 0
	strd	r4, [sp, #-36]!
	.save {r4, r5, r6, r7, r8, r9, r10, fp, lr}
	mov	r4, r0
	strd	r6, [sp, #8]
	add	r7, r0, #156
	strd	r8, [sp, #16]
	strd	r10, [sp, #24]
	movw	r10, #:lower16:.LC2
	str	lr, [sp, #32]
	ldr	r3, [r0, #76]
	.pad #12
	sub	sp, sp, #12
	movt	r10, #:upper16:.LC2
	str	r3, [sp]
.L1675:
	add	r9, r4, #108
.L1674:
	mov	r8, #256
.L1673:
	ldr	r0, [r4, #252]
	add	r6, r4, #164
	bl	smd_cur_packet_size
	subs	r5, r0, #0
	beq	.L1670
	ldr	r0, [r4, #252]
	bl	smd_read_avail
	mov	r3, r0
	mov	r0, r7
	cmp	r3, r5
	blt	.L1670
	bl	_raw_spin_lock_irqsave
	ldr	fp, [r4, #108]
	mov	r2, r0
	mov	ip, #512
	mov	r0, r7
	mov	r1, r2
	cmp	fp, r9
	beq	.L1682
	ldr	lr, [fp]
	ldr	r2, [fp, #4]
	str	r2, [lr, #4]
	str	lr, [r2]
	stm	fp, {r8, ip}
	bl	_raw_spin_unlock_irqrestore
	mov	r2, r5
	ldr	r1, [fp, #-8]
	ldr	r0, [r4, #252]
	bl	smd_read
	mov	r2, r0
	mov	r0, r7
	str	r2, [fp, #-4]
	bl	_raw_spin_lock_irqsave
	ldr	lr, [r4, #128]
	add	r2, r4, #124
	mov	r1, r0
	ldr	ip, [r4, #436]
	mov	r0, r7
	str	fp, [r4, #128]
	add	ip, ip, #1
	str	ip, [r4, #436]
	stm	fp, {r2, lr}
	str	fp, [lr]
	bl	_raw_spin_unlock_irqrestore
	ldr	r5, [r4, #76]
	ldr	r3, [r4, #92]
	ldr	r3, [r3]
	.syntax divided
@ 60 "/run/media/tfonda/HDD/android/bacon/android_kernel_oppo_msm8974/arch/arm/include/asm/atomic.h" 1
	dmb
@ 0 "" 2
@ 111 "/run/media/tfonda/HDD/android/bacon/android_kernel_oppo_msm8974/arch/arm/include/asm/processor.h" 1
	pld	[r6]
@ 0 "" 2
@ 63 "/run/media/tfonda/HDD/android/bacon/android_kernel_oppo_msm8974/arch/arm/include/asm/atomic.h" 1
	@ atomic_add_return
1:	ldrex	r2, [r6]
	add	r2, r2, #1
	strex	r1, r2, [r6]
	teq	r1, #0
	bne	1b
@ 0 "" 2
@ 73 "/run/media/tfonda/HDD/android/bacon/android_kernel_oppo_msm8974/arch/arm/include/asm/atomic.h" 1
	dmb
@ 0 "" 2
	.arm
	.syntax unified
	cmp	r2, #1
	bne	.L1673
	mov	r1, #0
	mvn	r0, #94
	strb	r0, [r3]
	strb	r2, [r3, #1]
	mov	r2, #32
	strb	r1, [r3, #2]
	strb	r1, [r3, #3]
	ldrb	r0, [r4, #96]	@ zero_extendqisi2
	strh	r0, [r3, #4]	@ unaligned
	strb	r1, [r3, #6]
	strb	r1, [r3, #7]
	ldrd	r0, [r4, #88]
	ldr	r3, [r0, #8]
	ldr	r3, [r3, #16]
	blx	r3
	subs	r2, r0, #0
	bge	.L1674
	.syntax divided
@ 83 "/run/media/tfonda/HDD/android/bacon/android_kernel_oppo_msm8974/arch/arm/include/asm/atomic.h" 1
	@ atomic_sub
1:	ldrex	r3, [r6]
	sub	r3, r3, #1
	strex	r1, r3, [r6]
	teq	r1, #0
	bne	1b
@ 0 "" 2
	.arm
	.syntax unified
	ldr	r0, [r5]
	mov	r1, r10
	add	r0, r0, #32
	bl	dev_err
	b	.L1675
.L1670:
	add	sp, sp, #12
	@ sp needed
	ldrd	r4, [sp]
	ldrd	r6, [sp, #8]
	ldrd	r8, [sp, #16]
	ldrd	r10, [sp, #24]
	add	sp, sp, #32
	ldr	pc, [sp], #4
.L1682:
	ldr	r3, [sp]
	movw	r1, #:lower16:.LC117
	str	r2, [sp, #4]
	movt	r1, #:upper16:.LC117
	ldr	r0, [r3]
	add	r0, r0, #32
	bl	dev_err
	ldr	r2, [sp, #4]
	mov	r0, r7
	mov	r1, r2
	add	sp, sp, #12
	@ sp needed
	ldrd	r4, [sp]
	ldrd	r6, [sp, #8]
	ldrd	r8, [sp, #16]
	ldrd	r10, [sp, #24]
	ldr	lr, [sp, #32]
	add	sp, sp, #36
	b	_raw_spin_unlock_irqrestore
	.fnend
	.size	rmnet_control_tx_tlet, .-rmnet_control_tx_tlet
	.section	.rodata.str1.4
	.align	2
.LC118:
	.ascii	"<3>%s: usb ep out queue failedport:%pK, port#%d err"
	.ascii	":%d\012\000"
	.text
	.align	2
	.syntax unified
	.arm
	.fpu softvfp
	.type	gsmd_tx_pull, %function
gsmd_tx_pull:
	.fnstart
	@ args = 0, pretend = 0, frame = 8
	@ frame_needed = 0, uses_anonymous_args = 0
	sub	r3, r0, #52
	strd	r4, [sp, #-36]!
	.save {r4, r5, r6, r7, r8, r9, r10, fp, lr}
	mov	r5, r0
	strd	r6, [sp, #8]
	sub	r6, r0, #48
	strd	r8, [sp, #16]
	strd	r10, [sp, #24]
	str	lr, [sp, #32]
	.pad #20
	sub	sp, sp, #20
	ldr	r7, [r0, #20]
	mov	r0, r6
	str	r3, [sp, #12]
	bl	_raw_spin_lock_irq
	ldr	r3, [r5, #16]
	cmp	r3, #0
	beq	.L1712
	ldr	r0, [r7]
	sub	r10, r5, #8
	ldr	r8, [r3, #80]
	cmp	r0, #0
	bne	.L1690
	b	.L1699
.L1698:
	bl	smd_read_avail
	cmp	r0, #0
	beq	.L1694
	ldr	r4, [r5, #-8]
	cmp	r0, #2048
	movlt	r2, r0
	movge	r2, #2048
	ldm	r4, {r1, r3}
	sub	r9, r4, #36
	str	r3, [r1, #4]
	str	r1, [r3]
	mov	r3, #256
	ldr	r1, [r4, #-36]
	str	r3, [r4]
	mov	r3, #512
	str	r3, [r4, #4]
	ldr	r0, [r7]
	bl	smd_read
	mov	r3, r0
	mov	r0, r6
	str	r3, [r4, #-32]
	bl	_raw_spin_unlock_irq
	ldr	r3, [r8, #8]
	mov	r1, r9
	mov	r2, #208
	mov	r0, r8
	ldr	r3, [r3, #16]
	blx	r3
	mov	fp, r0
	mov	r0, r6
	bl	_raw_spin_lock_irq
	cmp	fp, #0
	bne	.L1713
	ldr	r2, [r4, #-32]
	ldr	r3, [r5, #116]
	add	r3, r3, r2
	str	r3, [r5, #116]
	ldr	r0, [r7]
	cmp	r0, #0
	beq	.L1694
.L1690:
	ldr	r3, [r5, #-8]
	cmp	r10, r3
	bne	.L1698
.L1694:
	ldr	r3, [r5, #16]
	cmp	r3, #0
	beq	.L1700
.L1699:
	ldr	r3, [r5, #20]
	ldr	r0, [r3]
	bl	smd_read_avail
	cmp	r0, #0
	beq	.L1700
	ldr	r3, [r5, #-8]
	cmp	r10, r3
	beq	.L1700
	movw	r3, #:lower16:.LANCHOR0
	mov	r1, r5
	movt	r3, #:upper16:.LANCHOR0
	ldr	r0, [r3, #2260]
	bl	queue_work
.L1700:
	mov	r0, r6
	add	sp, sp, #20
	@ sp needed
	ldrd	r4, [sp]
	ldrd	r6, [sp, #8]
	ldrd	r8, [sp, #16]
	ldrd	r10, [sp, #24]
	ldr	lr, [sp, #32]
	add	sp, sp, #36
	b	_raw_spin_unlock_irq
.L1712:
	mov	r0, r6
	bl	_raw_spin_unlock_irq
	sub	r3, r5, #52
	cmp	r3, #0
	beq	.L1683
	ldr	r3, [r5, #20]
	ldr	r0, [r3]
	cmp	r0, #0
	bne	.L1688
	b	.L1683
.L1689:
	ldr	r3, [r5, #20]
	ldr	r0, [r3]
	bl	smd_read
	ldr	r3, [r5, #20]
	ldr	r0, [r3]
.L1688:
	bl	smd_read_avail
	subs	r2, r0, #0
	mov	r1, #0
	bne	.L1689
.L1683:
	add	sp, sp, #20
	@ sp needed
	ldrd	r4, [sp]
	ldrd	r6, [sp, #8]
	ldrd	r8, [sp, #16]
	ldrd	r10, [sp, #24]
	add	sp, sp, #32
	ldr	pc, [sp], #4
.L1713:
	movw	r0, #:lower16:.LC118
	ldr	r1, .L1714
	str	fp, [sp]
	movt	r0, #:upper16:.LC118
	ldr	r3, [r5, #-52]
	ldr	r2, [sp, #12]
	bl	printk
	ldr	r3, [r5, #16]
	cmp	r3, #0
	bne	.L1696
	ldr	r0, [r4, #-36]
	bl	kfree
	ldr	r3, [r8, #8]
	mov	r1, r9
	mov	r0, r8
	ldr	r3, [r3, #12]
	blx	r3
	b	.L1694
.L1696:
	ldr	r3, [r5, #-8]
	str	r4, [r3, #4]
	stm	r4, {r3, r10}
	str	r4, [r5, #-8]
	b	.L1694
.L1715:
	.align	2
.L1714:
	.word	.LANCHOR2+712
	.fnend
	.size	gsmd_tx_pull, .-gsmd_tx_pull
	.align	2
	.syntax unified
	.arm
	.fpu softvfp
	.type	rmnet_mux_smd_data_tx_tlet, %function
rmnet_mux_smd_data_tx_tlet:
	.fnstart
	@ args = 0, pretend = 0, frame = 0
	@ frame_needed = 0, uses_anonymous_args = 0
	strd	r4, [sp, #-32]!
	.save {r4, r5, r6, r7, r8, r9, r10, lr}
	strd	r6, [sp, #8]
	strd	r8, [sp, #16]
	str	r10, [sp, #24]
	str	lr, [sp, #28]
	ldr	r10, [r0, #76]
	ldr	r3, [r0, #360]
	cmp	r3, #0
	beq	.L1716
	mov	r5, r0
	add	r7, r0, #356
	add	r8, r0, #96
	mov	r9, #256
	b	.L1720
.L1731:
	ldr	r0, [r5, #120]
	bl	smd_read_avail
	mov	r3, r0
	mov	r0, r7
	cmp	r3, r6
	blt	.L1716
	bl	_raw_spin_lock_irqsave
	ldr	r4, [r5, #96]
	mov	r1, r0
	mov	ip, #512
	mov	r0, r7
	cmp	r8, r4
	beq	.L1729
	ldrd	r2, [r4]
	str	r3, [r2, #4]
	str	r2, [r3]
	stm	r4, {r9, ip}
	bl	_raw_spin_unlock_irqrestore
	mov	r2, r6
	ldr	r1, [r4, #-36]
	ldr	r0, [r5, #120]
	bl	smd_read
	str	r0, [r4, #-32]
	ldr	r0, [r5, #84]
	mov	r2, #32
	sub	r1, r4, #36
	ldr	r3, [r0, #8]
	ldr	r3, [r3, #16]
	blx	r3
	cmp	r0, #0
	bne	.L1730
	ldr	r2, [r5, #360]
	ldr	r3, [r5, #396]
	cmp	r2, #0
	add	r3, r3, #1
	str	r3, [r5, #396]
	beq	.L1716
.L1720:
	ldr	r0, [r5, #120]
	bl	smd_cur_packet_size
	subs	r6, r0, #0
	bne	.L1731
.L1716:
	ldrd	r4, [sp]
	ldrd	r6, [sp, #8]
	ldrd	r8, [sp, #16]
	ldr	r10, [sp, #24]
	add	sp, sp, #28
	ldr	pc, [sp], #4
.L1730:
	ldr	r3, [r10]
	movw	r1, #:lower16:.LC116
	mov	r2, r0
	movt	r1, #:upper16:.LC116
	add	r0, r3, #32
	bl	dev_err
	mov	r0, r7
	bl	_raw_spin_lock_irqsave
	ldr	r3, [r5, #100]
	mov	r1, r0
	mov	r0, r7
	str	r4, [r5, #100]
	str	r8, [r4]
	str	r3, [r4, #4]
	str	r4, [r3]
.L1729:
	ldrd	r4, [sp]
	ldrd	r6, [sp, #8]
	ldrd	r8, [sp, #16]
	ldr	r10, [sp, #24]
	ldr	lr, [sp, #28]
	add	sp, sp, #32
	b	_raw_spin_unlock_irqrestore
	.fnend
	.size	rmnet_mux_smd_data_tx_tlet, .-rmnet_mux_smd_data_tx_tlet
	.align	2
	.syntax unified
	.arm
	.fpu softvfp
	.type	gsmd_disconnect_work, %function
gsmd_disconnect_work:
	.fnstart
	@ args = 0, pretend = 0, frame = 0
	@ frame_needed = 0, uses_anonymous_args = 0
	.save {r4, lr}
	str	r4, [sp, #-8]!
	mov	r4, r0
	str	lr, [sp, #4]
	ldr	r3, [r0, #-52]
	ldr	r0, [r3]
	bl	smd_close
	ldr	r3, [r4, #-52]
	mov	r2, #0
	str	r2, [r3]
	ldr	r4, [sp]
	add	sp, sp, #4
	ldr	pc, [sp], #4
	.fnend
	.size	gsmd_disconnect_work, .-gsmd_disconnect_work
	.align	2
	.syntax unified
	.arm
	.fpu softvfp
	.type	rmnet_smd_disconnect_work, %function
rmnet_smd_disconnect_work:
	.fnstart
	@ args = 0, pretend = 0, frame = 0
	@ frame_needed = 0, uses_anonymous_args = 0
	strd	r4, [sp, #-16]!
	.save {r4, r5, r6, lr}
	mov	r4, r0
	sub	r0, r0, #124
	str	r6, [sp, #8]
	mov	r5, #0
	str	lr, [sp, #12]
	bl	tasklet_kill
	sub	r0, r4, #144
	bl	tasklet_kill
	sub	r0, r4, #60
	bl	tasklet_kill
	sub	r0, r4, #80
	bl	tasklet_kill
	ldr	r0, [r4, #-148]
	bl	smd_close
	str	r5, [r4, #-104]
	ldr	r0, [r4, #-84]
	bl	smd_close
	mov	r0, r4
	str	r5, [r4, #-236]
	str	r5, [r4, #-40]
	ldr	r3, [r0, #-252]!
	cmp	r3, r0
	ldr	r2, [r3]
	subne	r5, r4, #260
	movne	lr, #256
	movne	ip, #512
	beq	.L1739
.L1738:
	ldr	r1, [r3, #4]
	cmp	r0, r2
	str	r1, [r2, #4]
	str	r2, [r1]
	str	lr, [r3]
	str	ip, [r3, #4]
	ldr	r1, [r4, #-256]
	str	r3, [r4, #-256]
	str	r5, [r3]
	str	r1, [r3, #4]
	str	r3, [r1]
	mov	r3, r2
	ldr	r2, [r2]
	bne	.L1738
.L1739:
	mov	r0, r4
	ldr	r3, [r0, #-284]!
	cmp	r3, r0
	ldr	r2, [r3]
	subne	r5, r4, #300
	movne	lr, #256
	movne	ip, #512
	beq	.L1737
.L1742:
	ldr	r1, [r3, #4]
	cmp	r0, r2
	str	r1, [r2, #4]
	str	r2, [r1]
	str	lr, [r3]
	str	ip, [r3, #4]
	ldr	r1, [r4, #-296]
	str	r3, [r4, #-296]
	str	r5, [r3]
	str	r1, [r3, #4]
	str	r3, [r1]
	mov	r3, r2
	ldr	r2, [r2]
	bne	.L1742
.L1737:
	mov	r0, r4
	ldr	r3, [r0, #-276]!
	cmp	r3, r0
	ldr	r2, [r3]
	subne	r5, r4, #292
	movne	lr, #256
	movne	ip, #512
	beq	.L1741
.L1745:
	ldr	r1, [r3, #4]
	cmp	r0, r2
	str	r1, [r2, #4]
	str	r2, [r1]
	str	lr, [r3]
	str	ip, [r3, #4]
	ldr	r1, [r4, #-288]
	str	r3, [r4, #-288]
	str	r5, [r3]
	str	r1, [r3, #4]
	str	r3, [r1]
	mov	r3, r2
	ldr	r2, [r2]
	bne	.L1745
.L1741:
	ldrb	r3, [r4, #-152]	@ zero_extendqisi2
	cmp	r3, #0
	bne	.L1750
.L1734:
	ldrd	r4, [sp]
	ldr	r6, [sp, #8]
	add	sp, sp, #12
	ldr	pc, [sp], #4
.L1750:
	sub	r0, r4, #232
	bl	platform_driver_unregister
	mov	r3, #0
	strb	r3, [r4, #-152]
	b	.L1734
	.fnend
	.size	rmnet_smd_disconnect_work, .-rmnet_smd_disconnect_work
	.section	.exit.text
	.align	2
	.syntax unified
	.arm
	.fpu softvfp
	.type	cleanup, %function
cleanup:
	.fnstart
	@ args = 0, pretend = 0, frame = 0
	@ frame_needed = 0, uses_anonymous_args = 0
	@ link register save eliminated.
	ldr	r0, .L1752
	b	platform_driver_unregister
.L1753:
	.align	2
.L1752:
	.word	.LANCHOR1+320
	.fnend
	.size	cleanup, .-cleanup
	.section	.rodata.str1.4
	.align	2
.LC119:
	.ascii	"<3>%s: %s(): Failed to register androidplatform dri"
	.ascii	"ver\012\000"
	.section	.init.text
	.align	2
	.syntax unified
	.arm
	.fpu softvfp
	.type	init, %function
init:
	.fnstart
	@ args = 0, pretend = 0, frame = 0
	@ frame_needed = 0, uses_anonymous_args = 0
	movw	r2, #:lower16:.LANCHOR0
	push	{r4, lr}
	.save {r4, lr}
	movt	r2, #:upper16:.LANCHOR0
	mov	r4, #0
	movw	r3, #:lower16:.LANCHOR1
	movw	r0, #:lower16:android_disconnect
	movt	r3, #:upper16:.LANCHOR1
	movt	r0, #:upper16:android_disconnect
	str	r4, [r2, #2276]
	movw	lr, #:lower16:android_setup
	movw	ip, #:lower16:android_suspend
	movw	r1, #:lower16:android_resume
	add	r4, r2, #196
	str	r0, [r3, #416]
	movt	lr, #:upper16:android_setup
	movt	ip, #:upper16:android_suspend
	movt	r1, #:upper16:android_resume
	add	r0, r3, #320
	str	r4, [r2, #196]
	str	r4, [r2, #200]
	str	lr, [r3, #412]
	str	ip, [r3, #420]
	str	r1, [r3, #424]
	bl	platform_driver_register
	subs	r4, r0, #0
	beq	.L1754
	ldr	r2, .L1760
	movw	r0, #:lower16:.LC119
	movt	r0, #:upper16:.LC119
	mov	r1, r2
	bl	printk
.L1754:
	mov	r0, r4
	pop	{r4, pc}
.L1761:
	.align	2
.L1760:
	.word	.LANCHOR2+728
	.fnend
	.size	init, .-init
	.section	.rodata.str1.4
	.align	2
.LC120:
	.ascii	"Unable to open control smd channel: %d\012\000"
	.align	2
.LC121:
	.ascii	"pdrv %s register failed %d\012\000"
	.align	2
.LC122:
	.ascii	"Unable to open data smd channel\012\000"
	.text
	.align	2
	.syntax unified
	.arm
	.fpu softvfp
	.type	rmnet_smd_connect_work, %function
rmnet_smd_connect_work:
	.fnstart
	@ args = 0, pretend = 0, frame = 24
	@ frame_needed = 0, uses_anonymous_args = 0
	strd	r4, [sp, #-24]!
	.save {r4, r5, r6, r7, r8, lr}
	sub	r2, r0, #132
	movw	r3, #:lower16:rmnet_smd_event_notify
	strd	r6, [sp, #8]
	movw	r6, #:lower16:.LANCHOR1
	mov	r1, r2
	movt	r6, #:upper16:.LANCHOR1
	mov	r4, r0
	str	r8, [sp, #16]
	movt	r3, #:upper16:rmnet_smd_event_notify
	str	lr, [sp, #20]
	.pad #24
	sub	sp, sp, #24
	ldr	r8, [r0, #-308]
	ldr	r0, [r6, #488]
	bl	smd_open
	subs	r2, r0, #0
	bne	.L1774
	ldr	r3, [r4, #-88]
	ands	r3, r3, #1
	bne	.L1766
	mov	r2, sp
	str	r3, [sp, #4]
	add	r5, sp, #4
	bic	r1, r2, #8128
	movw	r2, #:lower16:autoremove_wake_function
	bic	r1, r1, #63
	movt	r2, #:upper16:autoremove_wake_function
	ldr	r0, [r1, #12]
	add	r1, sp, #16
	sub	r7, r4, #80
	str	r0, [sp, #8]
	str	r2, [sp, #12]
	str	r1, [sp, #16]
	str	r1, [sp, #20]
	b	.L1768
.L1775:
	bl	schedule
.L1768:
	mov	r2, #2
	mov	r1, r5
	mov	r0, r7
	bl	prepare_to_wait
	ldr	r3, [r4, #-88]
	tst	r3, #1
	beq	.L1775
	mov	r1, r5
	mov	r0, r7
	bl	finish_wait
.L1766:
	sub	r2, r4, #68
	movw	r3, #:lower16:rmnet_smd_event_notify
	ldr	r0, [r6, #492]
	mov	r1, r2
	movt	r3, #:upper16:rmnet_smd_event_notify
	bl	smd_open
	cmp	r0, #0
	bne	.L1776
	ldr	r3, [r4, #-24]
	ands	r3, r3, #1
	bne	.L1770
	mov	r2, sp
	str	r3, [sp, #4]
	add	r5, sp, #4
	bic	r1, r2, #8128
	movw	r2, #:lower16:autoremove_wake_function
	bic	r1, r1, #63
	movt	r2, #:upper16:autoremove_wake_function
	ldr	r0, [r1, #12]
	add	r1, sp, #16
	sub	r6, r4, #16
	str	r0, [sp, #8]
	str	r2, [sp, #12]
	str	r1, [sp, #16]
	str	r1, [sp, #20]
	b	.L1772
.L1777:
	bl	schedule
.L1772:
	mov	r2, #2
	mov	r1, r5
	mov	r0, r6
	bl	prepare_to_wait
	ldr	r3, [r4, #-24]
	tst	r3, #1
	beq	.L1777
	mov	r1, r5
	mov	r0, r6
	bl	finish_wait
.L1770:
	mov	r3, #1
	sub	r0, r4, #384
	str	r3, [r4, #-224]
	bl	rmnet_smd_start_rx
.L1762:
	add	sp, sp, #24
	@ sp needed
	ldrd	r4, [sp]
	ldrd	r6, [sp, #8]
	ldr	r8, [sp, #16]
	add	sp, sp, #20
	ldr	pc, [sp], #4
.L1774:
	ldr	r0, [r8]
	movw	r1, #:lower16:.LC120
	movt	r1, #:upper16:.LC120
	add	r0, r0, #32
	bl	dev_err
	ldrb	r3, [r4, #-136]	@ zero_extendqisi2
	cmp	r3, #0
	bne	.L1762
	sub	r0, r4, #216
	bl	platform_driver_register
	subs	r3, r0, #0
	moveq	r3, #1
	strbeq	r3, [r4, #-136]
	beq	.L1762
	ldr	r0, [r8]
	movw	r1, #:lower16:.LC121
	movt	r1, #:upper16:.LC121
	ldr	r2, [r4, #-196]
	add	r0, r0, #32
	bl	dev_err
	b	.L1762
.L1776:
	ldr	r0, [r8]
	movw	r1, #:lower16:.LC122
	movt	r1, #:upper16:.LC122
	add	r0, r0, #32
	bl	dev_err
	ldr	r0, [r4, #-132]
	bl	smd_close
	b	.L1762
	.fnend
	.size	rmnet_smd_connect_work, .-rmnet_smd_connect_work
	.section	.rodata.str1.4
	.align	2
.LC123:
	.ascii	"<3>%s:smd read_avail failure:%d or channel closed c"
	.ascii	"h=%pK\000"
	.align	2
.LC124:
	.ascii	"<3>%s: SMD sending incorrect pkt\012\000"
	.align	2
.LC125:
	.ascii	"<3>%s: smd read failure %d\012\000"
	.text
	.align	2
	.syntax unified
	.arm
	.fpu softvfp
	.type	grmnet_ctrl_smd_read_w, %function
grmnet_ctrl_smd_read_w:
	.fnstart
	@ args = 0, pretend = 0, frame = 32
	@ frame_needed = 0, uses_anonymous_args = 0
	strd	r4, [sp, #-36]!
	.save {r4, r5, r6, r7, r8, r9, r10, fp, lr}
	mov	r4, r0
	strd	r6, [sp, #8]
	strd	r8, [sp, #16]
	strd	r10, [sp, #24]
	str	lr, [sp, #32]
	ldr	fp, [r0, #32]
	.pad #36
	sub	sp, sp, #36
	add	r9, fp, #108
	mov	r0, r9
	bl	_raw_spin_lock_irqsave
	mov	r5, r0
	ldr	r0, [r4, #-52]
	cmp	r0, #0
	beq	.L1779
	mov	r3, sp
	bic	r10, r3, #8128
	bic	r10, r10, #63
.L1791:
	bl	smd_cur_packet_size
	subs	r6, r0, #0
	ble	.L1779
	mov	r1, r5
	mov	r0, r9
	bl	_raw_spin_unlock_irqrestore
	mov	r1, #208
	mov	r0, r6
	bl	__kmalloc
	subs	r8, r0, #0
	beq	.L1778
	mov	r5, #0
.L1789:
	ldr	r0, [r4, #-52]
	bl	smd_read_avail
	subs	r2, r0, #0
	bne	.L1781
	ldr	r3, [r4, #-52]
	cmp	r3, #0
	bne	.L1813
.L1782:
	movw	r0, #:lower16:.LC123
	ldr	r1, .L1817
	movt	r0, #:upper16:.LC123
	bl	printk
	mov	r0, r8
	bl	kfree
.L1778:
	add	sp, sp, #36
	@ sp needed
	ldrd	r4, [sp]
	ldrd	r6, [sp, #8]
	ldrd	r8, [sp, #16]
	ldrd	r10, [sp, #24]
	add	sp, sp, #32
	ldr	pc, [sp], #4
.L1813:
	ldr	r0, [r10, #12]
	movw	r3, #:lower16:autoremove_wake_function
	add	r1, sp, #24
	movt	r3, #:upper16:autoremove_wake_function
	sub	r7, r4, #28
	str	r2, [sp, #12]
	str	r1, [sp, #24]
	str	r0, [sp, #16]
	str	r3, [sp, #20]
	str	r1, [sp, #28]
	b	.L1784
.L1814:
	ldr	r3, [r4, #-52]
	cmp	r3, #0
	beq	.L1783
	bl	schedule
.L1784:
	mov	r2, #2
	add	r1, sp, #12
	mov	r0, r7
	bl	prepare_to_wait
	ldr	r0, [r4, #-52]
	bl	smd_read_avail
	subs	r2, r0, #0
	beq	.L1814
.L1783:
	add	r1, sp, #12
	mov	r0, r7
	str	r2, [sp, #4]
	bl	finish_wait
	ldr	r2, [sp, #4]
.L1781:
	cmp	r2, #0
	ldr	r3, [r4, #-52]
	blt	.L1782
	cmp	r3, #0
	beq	.L1782
	add	r1, r2, r5
	cmp	r1, r6
	bgt	.L1815
	mov	r0, r3
	add	r1, r8, r5
	bl	smd_read
	subs	r2, r0, #0
	ble	.L1816
	add	r5, r5, r2
	cmp	r6, r5
	bgt	.L1789
	mov	r0, r9
	bl	_raw_spin_lock_irqsave
	ldr	r3, [fp, #104]
	mov	r5, r0
	cmp	r3, #0
	beq	.L1790
	ldr	r7, [r3, #84]
	cmp	r7, #0
	beq	.L1790
	mov	r0, r3
	mov	r2, r6
	mov	r1, r8
	blx	r7
	ldr	r3, [r4, #44]
	add	r3, r3, #1
	str	r3, [r4, #44]
.L1790:
	mov	r0, r8
	bl	kfree
	ldr	r0, [r4, #-52]
	cmp	r0, #0
	bne	.L1791
.L1779:
	mov	r1, r5
	mov	r0, r9
	bl	_raw_spin_unlock_irqrestore
	b	.L1778
.L1815:
	movw	r0, #:lower16:.LC124
	ldr	r1, .L1817
	movt	r0, #:upper16:.LC124
	bl	printk
	mov	r0, r8
	bl	kfree
	b	.L1778
.L1816:
	movw	r0, #:lower16:.LC125
	ldr	r1, .L1817
	movt	r0, #:upper16:.LC125
	bl	printk
	mov	r0, r8
	bl	kfree
	b	.L1778
.L1818:
	.align	2
.L1817:
	.word	.LANCHOR2+736
	.fnend
	.size	grmnet_ctrl_smd_read_w, .-grmnet_ctrl_smd_read_w
	.align	2
	.syntax unified
	.arm
	.fpu softvfp
	.type	rmnet_smd_event_notify, %function
rmnet_smd_event_notify:
	.fnstart
	@ args = 0, pretend = 0, frame = 0
	@ frame_needed = 0, uses_anonymous_args = 0
	cmp	r1, #2
	strd	r4, [sp, #-16]!
	.save {r4, r5, r6, lr}
	mov	r4, r0
	str	r6, [sp, #8]
	str	lr, [sp, #12]
	ldr	r5, [r0, #48]
	beq	.L1820
	cmp	r1, #3
	beq	.L1821
	cmp	r1, #1
	beq	.L1832
.L1819:
	ldrd	r4, [sp]
	ldr	r6, [sp, #8]
	add	sp, sp, #12
	ldr	pc, [sp], #4
.L1820:
	add	r1, r0, #44
	mov	r0, #0
	bl	_set_bit
	add	r0, r4, #52
	mov	r3, #0
	ldrd	r4, [sp]
	mov	r2, #1
	mov	r1, #3
	ldr	r6, [sp, #8]
	ldr	lr, [sp, #12]
	add	sp, sp, #16
	b	__wake_up
.L1832:
	ldr	r3, [r0, #20]
	ldr	r3, [r3, #160]
	cmp	r3, #0
	beq	.L1819
	cmp	r5, #0
	bne	.L1833
.L1825:
	ldr	r0, [r4]
	bl	smd_read_avail
	cmp	r0, #0
	beq	.L1819
	add	r1, r4, #8
	mov	r0, #0
	bl	_test_and_set_bit
	cmp	r0, #0
	add	r4, r4, #4
	bne	.L1819
	mov	r0, r4
	ldrd	r4, [sp]
	ldr	r6, [sp, #8]
	ldr	lr, [sp, #12]
	add	sp, sp, #16
	b	__tasklet_schedule
.L1821:
	add	r1, r0, #44
	mov	r0, #0
	ldrd	r4, [sp]
	ldr	r6, [sp, #8]
	ldr	lr, [sp, #12]
	add	sp, sp, #16
	b	_clear_bit
.L1833:
	ldr	r0, [r0]
	bl	smd_write_avail
	cmp	r0, r5
	blt	.L1825
	add	r1, r4, #28
	mov	r0, #0
	bl	_test_and_set_bit
	cmp	r0, #0
	add	r3, r4, #24
	bne	.L1825
	mov	r0, r3
	bl	__tasklet_schedule
	b	.L1825
	.fnend
	.size	rmnet_smd_event_notify, .-rmnet_smd_event_notify
	.align	2
	.syntax unified
	.arm
	.fpu softvfp
	.type	grmnet_ctrl_smd_notify, %function
grmnet_ctrl_smd_notify:
	.fnstart
	@ args = 0, pretend = 0, frame = 0
	@ frame_needed = 0, uses_anonymous_args = 0
	cmp	r1, #2
	strd	r4, [sp, #-32]!
	.save {r4, r5, r6, r7, r8, r9, r10, lr}
	mov	r4, r0
	strd	r6, [sp, #8]
	strd	r8, [sp, #16]
	str	r10, [sp, #24]
	str	lr, [sp, #28]
	beq	.L1835
	cmp	r1, #3
	beq	.L1836
	cmp	r1, #1
	beq	.L1867
.L1837:
	add	r0, r4, #24
	mov	r3, #0
	ldrd	r4, [sp]
	mov	r2, #1
	mov	r1, #3
	ldrd	r6, [sp, #8]
	ldrd	r8, [sp, #16]
	ldr	r10, [sp, #24]
	ldr	lr, [sp, #28]
	add	sp, sp, #32
	b	__wake_up
.L1835:
	add	r1, r0, #8
	mov	r0, #0
	bl	_set_bit
	cmp	r4, #0
	beq	.L1837
	ldr	r0, [r4, #104]
	cmp	r0, #0
	beq	.L1837
	ldr	r3, [r0, #100]
	cmp	r3, #0
	beq	.L1837
	blx	r3
	b	.L1837
.L1867:
	ldr	r0, [r0]
	bl	smd_read_avail
	cmp	r0, #0
	beq	.L1838
	ldr	r2, [r4, #28]
	add	r3, r4, #28
	cmp	r2, r3
	beq	.L1868
.L1838:
	ldr	r0, [r4]
	bl	smd_write_avail
	cmp	r0, #0
	beq	.L1837
	movw	r3, #:lower16:.LANCHOR0
	add	r1, r4, #68
	movt	r3, #:upper16:.LANCHOR0
	ldr	r0, [r3, #2280]
	bl	queue_work
	b	.L1837
.L1836:
	add	r1, r0, #8
	mov	r0, #0
	bl	_clear_bit
	cmp	r4, #0
	beq	.L1841
	ldr	r0, [r4, #104]
	cmp	r0, #0
	beq	.L1841
	ldr	r3, [r0, #96]
	cmp	r3, #0
	beq	.L1841
	blx	r3
.L1841:
	add	r10, r4, #108
	add	r6, r4, #40
	mov	r0, r10
	bl	_raw_spin_lock_irqsave
	ldr	r3, [r4, #40]
	mov	r9, r0
	cmp	r3, r6
	beq	.L1842
	mov	r8, #256
	mov	r7, #512
.L1843:
	ldm	r3, {r1, r2}
	mov	r5, r3
	str	r2, [r1, #4]
	str	r1, [r2]
	str	r8, [r3]
	str	r7, [r3, #4]
	ldr	r0, [r5, #-8]!
	bl	kfree
	mov	r0, r5
	bl	kfree
	ldr	r3, [r4, #40]
	cmp	r3, r6
	bne	.L1843
.L1842:
	mov	r1, r9
	mov	r0, r10
	bl	_raw_spin_unlock_irqrestore
	b	.L1837
.L1868:
	movw	r3, #:lower16:.LANCHOR0
	add	r1, r4, #52
	movt	r3, #:upper16:.LANCHOR0
	ldr	r0, [r3, #2280]
	bl	queue_work
	b	.L1838
	.fnend
	.size	grmnet_ctrl_smd_notify, .-grmnet_ctrl_smd_notify
	.section	.rodata.str1.4
	.align	2
.LC126:
	.ascii	"<3>%s: mbim dev is null\012\000"
	.align	2
.LC127:
	.ascii	"<3>%s: mbim command error %d\012\000"
	.align	2
.LC128:
	.ascii	"<3>%s: Unable to allocate ctrl pkt\012\000"
	.text
	.align	2
	.syntax unified
	.arm
	.fpu softvfp
	.type	fmbim_cmd_complete, %function
fmbim_cmd_complete:
	.fnstart
	@ args = 0, pretend = 0, frame = 0
	@ frame_needed = 0, uses_anonymous_args = 0
	strd	r4, [sp, #-24]!
	.save {r4, r5, r6, r7, r8, lr}
	strd	r6, [sp, #8]
	str	r8, [sp, #16]
	str	lr, [sp, #20]
	ldr	r4, [r1, #32]
	ldr	r8, [r1, #48]
	cmp	r4, #0
	beq	.L1875
	ldr	r2, [r1, #44]
	mov	r6, r1
	cmp	r2, #0
	blt	.L1876
	mov	r1, #32
	mov	r0, r8
	bl	mbim_alloc_ctrl_pkt
	subs	r5, r0, #0
	beq	.L1877
	mov	r7, r5
	mov	r2, r8
	ldr	r1, [r6]
	add	r6, r4, #196
	ldr	r0, [r7], #8
	bl	memcpy
	mov	r0, r6
	bl	_raw_spin_lock
	ldr	r3, [r4, #204]
	add	r2, r4, #200
	mov	r0, r6
	str	r7, [r4, #204]
	strd	r2, [r5, #8]
	str	r7, [r3]
	bl	_raw_spin_unlock
	add	r0, r4, #100
	mov	r3, #0
	ldrd	r4, [sp]
	mov	r2, #1
	mov	r1, #3
	ldrd	r6, [sp, #8]
	ldr	r8, [sp, #16]
	ldr	lr, [sp, #20]
	add	sp, sp, #24
	b	__wake_up
.L1875:
	ldr	r1, .L1878
	movw	r0, #:lower16:.LC126
	movt	r0, #:upper16:.LC126
.L1874:
	ldrd	r4, [sp]
	ldrd	r6, [sp, #8]
	ldr	r8, [sp, #16]
	ldr	lr, [sp, #20]
	add	sp, sp, #24
	b	printk
.L1877:
	movw	r0, #:lower16:.LC128
	ldr	r1, .L1878
	movt	r0, #:upper16:.LC128
	b	.L1874
.L1876:
	movw	r0, #:lower16:.LC127
	ldr	r1, .L1878
	movt	r0, #:upper16:.LC127
	ldrd	r4, [sp]
	ldrd	r6, [sp, #8]
	ldr	r8, [sp, #16]
	ldr	lr, [sp, #20]
	add	sp, sp, #24
	b	printk
.L1879:
	.align	2
.L1878:
	.word	.LANCHOR2+760
	.fnend
	.size	fmbim_cmd_complete, .-fmbim_cmd_complete
	.align	2
	.syntax unified
	.arm
	.fpu softvfp
	.type	acc_function_disable, %function
acc_function_disable:
	.fnstart
	@ args = 0, pretend = 0, frame = 0
	@ frame_needed = 0, uses_anonymous_args = 0
	.save {r4, lr}
	str	r4, [sp, #-8]!
	mov	r4, r0
	str	lr, [sp, #4]
	ldrb	r3, [r0, #92]	@ zero_extendqisi2
	ldr	r0, [r0, #84]
	bic	r3, r3, #3
	orr	r3, r3, #2
	strb	r3, [r4, #92]
	ldr	r3, [r0, #8]
	ldr	r3, [r3, #4]
	blx	r3
	ldr	r0, [r4, #88]
	ldr	r3, [r0, #8]
	ldr	r3, [r3, #4]
	blx	r3
	add	r0, r4, #1648
	mov	r3, #0
	ldr	r4, [sp]
	add	r0, r0, #8
	mov	r2, #1
	ldr	lr, [sp, #4]
	mov	r1, #3
	add	sp, sp, #8
	b	__wake_up
	.fnend
	.size	acc_function_disable, .-acc_function_disable
	.align	2
	.syntax unified
	.arm
	.fpu softvfp
	.type	acc_complete_out, %function
acc_complete_out:
	.fnstart
	@ args = 0, pretend = 0, frame = 0
	@ frame_needed = 0, uses_anonymous_args = 0
	@ link register save eliminated.
	movw	r3, #:lower16:.LANCHOR0
	mov	r2, #1
	movt	r3, #:upper16:.LANCHOR0
	ldr	r0, [r3, #824]
	str	r2, [r0, #1688]
	ldr	r3, [r1, #44]
	cmn	r3, #108
	bne	.L1883
	ldrb	r3, [r0, #92]	@ zero_extendqisi2
	bic	r3, r3, #3
	orr	r3, r3, #2
	strb	r3, [r0, #92]
.L1883:
	add	r0, r0, #1648
	mov	r3, #0
	add	r0, r0, #8
	mov	r2, #1
	mov	r1, #3
	b	__wake_up
	.fnend
	.size	acc_complete_out, .-acc_complete_out
	.align	2
	.syntax unified
	.arm
	.fpu softvfp
	.type	mtp_function_disable, %function
mtp_function_disable:
	.fnstart
	@ args = 0, pretend = 0, frame = 0
	@ frame_needed = 0, uses_anonymous_args = 0
	strd	r4, [sp, #-16]!
	.save {r4, r5, r6, lr}
	mov	r5, #0
	mov	r4, r0
	str	r6, [sp, #8]
	str	lr, [sp, #12]
	str	r5, [r0, #96]
	ldr	r0, [r0, #84]
	ldr	r3, [r0, #8]
	ldr	r3, [r3, #4]
	blx	r3
	ldr	r0, [r4, #88]
	ldr	r3, [r0, #8]
	ldr	r3, [r3, #4]
	blx	r3
	ldr	r0, [r4, #92]
	ldr	r3, [r0, #8]
	ldr	r3, [r3, #4]
	blx	r3
	mov	r3, r5
	add	r0, r4, #124
	ldrd	r4, [sp]
	mov	r2, #1
	mov	r1, #3
	ldr	r6, [sp, #8]
	ldr	lr, [sp, #12]
	add	sp, sp, #16
	b	__wake_up
	.fnend
	.size	mtp_function_disable, .-mtp_function_disable
	.align	2
	.syntax unified
	.arm
	.fpu softvfp
	.type	mtp_complete_out, %function
mtp_complete_out:
	.fnstart
	@ args = 0, pretend = 0, frame = 0
	@ frame_needed = 0, uses_anonymous_args = 0
	@ link register save eliminated.
	movw	r3, #:lower16:.LANCHOR0
	mov	r2, #1
	movt	r3, #:upper16:.LANCHOR0
	ldr	r0, [r3, #836]
	str	r2, [r0, #168]
	ldr	r3, [r1, #44]
	add	r0, r0, #124
	mov	r2, #1
	mov	r1, #3
	cmp	r3, #0
	movne	r3, #4
	strne	r3, [r0, #-28]
	mov	r3, #0
	b	__wake_up
	.fnend
	.size	mtp_complete_out, .-mtp_complete_out
	.section	.rodata.str1.4
	.align	2
.LC129:
	.ascii	"%s: response queue error\012\000"
	.text
	.align	2
	.syntax unified
	.arm
	.fpu softvfp
	.type	mtp_function_ctrlrequest, %function
mtp_function_ctrlrequest:
	.fnstart
	@ args = 0, pretend = 0, frame = 0
	@ frame_needed = 0, uses_anonymous_args = 0
	strd	r4, [sp, #-32]!
	.save {r4, r5, r6, r7, r8, r9, r10, lr}
	mov	r4, r1
	strd	r6, [sp, #8]
	strd	r8, [sp, #16]
	str	r10, [sp, #24]
	str	lr, [sp, #28]
	ldrb	r1, [r2]	@ zero_extendqisi2
	ldrh	r3, [r2, #4]	@ unaligned
	ldrh	r6, [r2, #2]	@ unaligned
	ldrh	r5, [r2, #6]	@ unaligned
	cmp	r1, #128
	beq	.L1912
	and	r0, r1, #96
	cmp	r0, #64
	beq	.L1913
	cmp	r0, #32
	bne	.L1908
	ldrb	r1, [r2, #1]	@ zero_extendqisi2
	movw	r2, #:lower16:.LANCHOR0
	movt	r2, #:upper16:.LANCHOR0
	ldr	r8, [r2, #836]
	cmp	r1, #100
	beq	.L1914
	cmp	r1, #103
	bne	.L1908
	orrs	r3, r3, r6
	bne	.L1908
	ldr	r2, [r4, #4]
	mov	r3, #4
	add	r10, r8, #80
	mov	r0, r10
	mov	r7, r3
	mov	r6, r3
	ldr	r9, [r2]
	strh	r3, [r9]	@ movhi
	bl	_raw_spin_lock_irqsave
	ldr	ip, [r8, #96]
	movw	r2, #8193
	movw	r3, #8217
	mov	r1, r0
	mov	r0, r10
	cmp	ip, #3
	movne	r3, r2
	strh	r3, [r9, #2]	@ movhi
	bl	_raw_spin_unlock_irqrestore
	cmp	r5, r7
	movls	r5, #0
	movhi	r5, #1
.L1894:
	ldr	r3, [r4, #4]
	mov	r2, #32
	ldrb	r1, [r3, #26]	@ zero_extendqisi2
	bfi	r1, r5, #1, #1
	strb	r1, [r3, #26]
	ldr	r3, [r4, #4]
	str	r7, [r3, #4]
	ldr	r3, [r4]
	ldr	r1, [r4, #4]
	ldr	r0, [r3, #4]
	ldr	r3, [r0, #8]
	ldr	r3, [r3, #16]
	blx	r3
	cmp	r0, #0
	blt	.L1915
.L1891:
	mov	r0, r6
	ldrd	r4, [sp]
	ldrd	r6, [sp, #8]
	ldrd	r8, [sp, #16]
	ldr	r10, [sp, #24]
	add	sp, sp, #28
	ldr	pc, [sp], #4
.L1914:
	orrs	r6, r3, r6
	beq	.L1916
.L1908:
	mvn	r6, #94
	b	.L1891
.L1912:
	ldrb	r3, [r2, #1]	@ zero_extendqisi2
	cmp	r3, #6
	bne	.L1908
	lsr	r3, r6, #8
	cmp	r3, #3
	bne	.L1908
	uxtb	r6, r6
	cmp	r6, #238
	bne	.L1908
	cmp	r5, #18
	ldr	r1, .L1918
	movcc	r6, r5
	movcs	r6, #18
	ldr	r3, [r4, #4]
	b	.L1911
.L1913:
	ldrb	r2, [r2, #1]	@ zero_extendqisi2
	cmp	r2, #1
	bne	.L1908
	tst	r1, #128
	beq	.L1908
	sub	r3, r3, #4
	cmp	r3, #1
	bhi	.L1908
	ldr	r1, .L1918+4
	cmp	r5, #40
	ldr	r3, [r4, #4]
	movcc	r6, r5
	movcs	r6, #40
.L1911:
	mov	r2, r6
	ldr	r0, [r3]
	mov	r7, r6
	bl	memcpy
	cmp	r6, r5
	movge	r5, #0
	movlt	r5, #1
	b	.L1894
.L1915:
	ldr	r0, [r4]
	movw	r1, #:lower16:.LC129
	ldr	r2, .L1918+8
	movt	r1, #:upper16:.LC129
	add	r0, r0, #32
	bl	dev_err
	b	.L1891
.L1916:
	add	r9, r8, #80
	mov	r0, r9
	bl	_raw_spin_lock_irqsave
	ldr	r3, [r8, #96]
	mov	r7, r0
	cmp	r3, #2
	beq	.L1917
.L1897:
	mov	r1, r7
	mov	r0, r9
	mov	r6, r5
	mov	r7, r5
	bl	_raw_spin_unlock_irqrestore
	mov	r5, #0
	b	.L1894
.L1917:
	mov	r10, #3
	mov	r3, r6
	mov	r1, r10
	add	r0, r8, #124
	mov	r2, #1
	str	r10, [r8, #96]
	bl	__wake_up
	mov	r3, r6
	mov	r1, r10
	add	r0, r8, #136
	mov	r2, #1
	bl	__wake_up
	b	.L1897
.L1919:
	.align	2
.L1918:
	.word	.LANCHOR1+496
	.word	.LANCHOR1+516
	.word	.LANCHOR2+780
	.fnend
	.size	mtp_function_ctrlrequest, .-mtp_function_ctrlrequest
	.section	.rodata.str1.4
	.align	2
.LC130:
	.ascii	"<3>ccid ep0 enqueue err %d\012\000"
	.text
	.align	2
	.syntax unified
	.arm
	.fpu softvfp
	.type	ccid_function_setup, %function
ccid_function_setup:
	.fnstart
	@ args = 0, pretend = 0, frame = 0
	@ frame_needed = 0, uses_anonymous_args = 0
	mov	ip, r0
	mov	r0, r1
	strd	r4, [sp, #-16]!
	.save {r4, r5, r6, lr}
	str	r6, [sp, #8]
	str	lr, [sp, #12]
	ldrh	r3, [r1, #6]	@ unaligned
	ldr	r1, [ip, #20]
	ldr	r2, [ip, #88]
	ldr	lr, [r1, #24]
	cmp	r2, #0
	ldr	r1, [lr, #4]
	beq	.L1925
	ldrh	r2, [r0]	@ unaligned
	movw	r4, #41218
	rev16	r2, r2
	uxth	r2, r2
	cmp	r2, r4
	beq	.L1922
	movw	r4, #41219
	cmp	r2, r4
	beq	.L1923
	movw	r1, #8449
	cmp	r2, r1
	beq	.L1931
.L1929:
	mvn	r4, #94
.L1921:
.L1920:
	mov	r0, r4
	ldrd	r4, [sp]
	ldr	r6, [sp, #8]
	add	sp, sp, #12
	ldr	pc, [sp], #4
.L1922:
	ldr	r2, [r1, #4]
	cmp	r3, r2
	bhi	.L1929
	movw	r2, #:lower16:.LANCHOR1
	ldr	r0, [r1]
	cmp	r3, #4
	movt	r2, #:upper16:.LANCHOR1
	movcs	r3, #4
	ldr	r2, [r2, #566]	@ unaligned
	str	r2, [r0]
.L1924:
	str	r3, [r1, #4]
	ldr	r3, [lr]
	mov	r2, #32
	ldr	r0, [r3, #4]
	ldr	r3, [r0, #8]
	ldr	r3, [r3, #16]
	blx	r3
	subs	r4, r0, #0
	bge	.L1920
	movw	r0, #:lower16:.LC130
	mov	r1, r4
	movt	r0, #:upper16:.LC130
	bl	printk
	b	.L1920
.L1931:
	cmp	r3, #0
	bne	.L1929
	ldrh	lr, [r0, #2]	@ unaligned
	mov	r2, #1
	add	r0, ip, #120
	mov	r1, #3
	mov	r4, r3
	strb	r2, [ip, #132]
	lsr	r5, lr, #8
	strb	lr, [ip, #133]
	str	r2, [ip, #136]
	strb	r5, [ip, #134]
	strb	r3, [ip, #135]
	bl	__wake_up
	b	.L1920
.L1923:
	ldr	r2, [r1, #4]
	cmp	r3, r2
	bhi	.L1929
	movw	r2, #:lower16:.LANCHOR1
	ldr	r0, [r1]
	cmp	r3, #4
	movt	r2, #:upper16:.LANCHOR1
	movcs	r3, #4
	ldr	r2, [r2, #575]	@ unaligned
	str	r2, [r0]
	b	.L1924
.L1925:
	mvn	r4, #106
	b	.L1920
	.fnend
	.size	ccid_function_setup, .-ccid_function_setup
	.align	2
	.syntax unified
	.arm
	.fpu softvfp
	.type	ccid_bulk_complete_out, %function
ccid_bulk_complete_out:
	.fnstart
	@ args = 0, pretend = 0, frame = 0
	@ frame_needed = 0, uses_anonymous_args = 0
	@ link register save eliminated.
	ldr	r2, [r1, #44]
	movw	r3, #:lower16:.LANCHOR0
	movt	r3, #:upper16:.LANCHOR0
	ldr	r1, [r3, #180]
	cmp	r2, #0
	mov	r2, #1
	movne	r3, #1
	add	r0, r1, #152
	str	r2, [r1, #180]
	strne	r3, [r1, #140]
	mov	r3, #0
	mov	r1, #3
	b	__wake_up
	.fnend
	.size	ccid_bulk_complete_out, .-ccid_bulk_complete_out
	.align	2
	.syntax unified
	.arm
	.fpu softvfp
	.type	adb_function_disable, %function
adb_function_disable:
	.fnstart
	@ args = 0, pretend = 0, frame = 0
	@ frame_needed = 0, uses_anonymous_args = 0
	strd	r4, [sp, #-16]!
	.save {r4, r5, r6, lr}
	mov	r5, #0
	mov	r4, r0
	str	r6, [sp, #8]
	mov	r6, #1
	str	lr, [sp, #12]
	str	r5, [r0, #92]
	strb	r5, [r0, #152]
	ldr	r0, [r0, #84]
	str	r6, [r4, #96]
	ldr	r3, [r0, #8]
	ldr	r3, [r3, #4]
	blx	r3
	ldr	r0, [r4, #88]
	ldr	r3, [r0, #8]
	ldr	r3, [r3, #4]
	blx	r3
	mov	r3, r5
	mov	r2, r6
	ldr	r6, [sp, #8]
	add	r0, r4, #120
	mov	r1, #3
	ldrd	r4, [sp]
	ldr	lr, [sp, #12]
	add	sp, sp, #16
	b	__wake_up
	.fnend
	.size	adb_function_disable, .-adb_function_disable
	.align	2
	.syntax unified
	.arm
	.fpu softvfp
	.type	adb_complete_out, %function
adb_complete_out:
	.fnstart
	@ args = 0, pretend = 0, frame = 0
	@ frame_needed = 0, uses_anonymous_args = 0
	@ link register save eliminated.
	movw	r3, #:lower16:.LANCHOR0
	mov	r2, #1
	movt	r3, #:upper16:.LANCHOR0
	ldr	r0, [r3, #2284]
	str	r2, [r0, #148]
	ldr	r3, [r1, #44]
	add	r0, r0, #120
	mov	r1, #3
	cmp	r3, #0
	cmnne	r3, #104
	mov	r3, #0
	strne	r2, [r0, #-24]
	mov	r2, #1
	b	__wake_up
	.fnend
	.size	adb_complete_out, .-adb_complete_out
	.section	.rodata.str1.4
	.align	2
.LC131:
	.ascii	"rmnet_mux command error %d\012\000"
	.align	2
.LC132:
	.ascii	"unable to allocate memory for ctrl req\012\000"
	.align	2
.LC133:
	.ascii	"<3>%s: ctrl pkts dropped: cpkts_drp_cnt: %lu\012\000"
	.text
	.align	2
	.syntax unified
	.arm
	.fpu softvfp
